(lp0
(dp1
S'ke_alamat'
p2
NsS'penandatangan'
p3
V-
p4
sS'dari_orang'
p5
NsS'ke_nama'
p6
NsS'judul'
p7
VSURAT KEPUTUSAN SC P3R & P3I 1439
p8
sS'dari_institusi'
p9
NsS'ke_jabatan'
p10
NsS'nomor'
p11
V001 / S.1 / YPM - 1000 / IV - 1439
p12
sS'diambil_oleh'
p13
NsS'dari_jabatan'
p14
NsS'tanggal'
p15
V02 Januari 2018
p16
sS'keterangan'
p17
NsS'ke_institusi'
p18
g4
sS'tanggal_diserahkan'
p19
NsS'ID'
p20
I1
sS'diketahui_direktur_eksekutif'
p21
Nsa(dp22
g2
Nsg3
VSUWARNO
p23
sg5
Nsg6
Nsg7
VSURAT PERJANJIAN SEWA MENYEWA
p24
sg9
Nsg10
Nsg11
V002 / S.9 / YPM - 1000 / IV - 1439
p25
sg13
Nsg14
Nsg15
Nsg17
Nsg18
VBPRS AL SALAAM
p26
sg19
Nsg20
I2
sg21
Nsa(dp27
g2
Nsg3
g23
sg5
Nsg6
Nsg7
g24
sg9
Nsg10
Nsg11
V003 / S.1 / YPM - 1000 / IV - 1439
p28
sg13
Nsg14
Nsg15
Nsg17
Nsg18
VHENDRO SUJATMOKO (GANESHA OPTIKAL)
p29
sg19
Nsg20
I3
sg21
Nsa(dp30
g2
Nsg3
VWAHYU SRIGUTOMO
p31
sg5
Nsg6
Nsg7
VSURAT PEMUTUSAN KONTRAK
p32
sg9
Nsg10
Nsg11
V004 / S.2 / YPM - D101 / IV - 1439
p33
sg13
Nsg14
Nsg15
Nsg17
Nsg18
VTENANT
p34
sg19
Nsg20
I4
sg21
Nsa(dp35
g2
Nsg3
g23
sg5
Nsg6
Nsg7
g24
sg9
Nsg10
Nsg11
V005 / S.2 / YPM - 1000 / IV - 1439
p36
sg13
Nsg14
Nsg15
Nsg17
Nsg18
VSUPRIANTO (MANDIRI GRAFIKA)
p37
sg19
Nsg20
I5
sg21
Nsa(dp38
g2
Nsg3
g23
sg5
Nsg6
Nsg7
g24
sg9
Nsg10
Nsg11
V006 / S.2 / YPM - 1000 / IV - 1439
p39
sg13
Nsg14
Nsg15
Nsg17
Nsg18
VPT PUSAT STUDI URBAN DESAIN
p40
sg19
Nsg20
I6
sg21
Nsa(dp41
g2
Nsg3
g23
sg5
Nsg6
Nsg7
g24
sg9
Nsg10
Nsg11
V007 / S.2 / YPM - 1000 / IV - 1439
p42
sg13
Nsg14
Nsg15
Nsg17
Nsg18
VSUDARMONO SASMONO (PT QUADRAN ENERGI REKAYASA)
p43
sg19
Nsg20
I7
sg21
Nsa(dp44
g2
Nsg3
g23
sg5
Nsg6
Nsg7
g24
sg9
Nsg10
Nsg11
V008 / S.2 / YPM - 1000 / IV - 1439
p45
sg13
Nsg14
Nsg15
Nsg17
Nsg18
VBAMBANG HERMANTO
p46
sg19
Nsg20
I8
sg21
Nsa(dp47
g2
Nsg3
g23
sg5
Nsg6
Nsg7
g24
sg9
Nsg10
Nsg11
V009 / S.2 / YPM - 1000 / IV - 1439
p48
sg13
Nsg14
Nsg15
Nsg17
Nsg18
VYUNUS SULISTYO (BEECOM)
p49
sg19
Nsg20
I9
sg21
Nsa(dp50
g2
Nsg3
g23
sg5
Nsg6
Nsg7
g24
sg9
Nsg10
Nsg11
V010 / S.2 / YPM - 1000 / IV - 1439
p51
sg13
Nsg14
Nsg15
Nsg17
Nsg18
VPT ZAMRUD KHATULISTIWA TECHNOLOGY
p52
sg19
Nsg20
I10
sg21
Nsa(dp53
g2
Nsg3
VLUTHFIE
p54
sg5
Nsg6
Nsg7
VSURAT PEMINJAMAN TEMPAT (PEMBINAAN 2 PEKANAN, BEASISWA PERINTIS 20.0)
p55
sg9
Nsg10
Nsg11
V011 / S.6 / YPM - 5000 / IV - 1439
p56
sg13
Nsg14
Nsg15
Nsg17
Nsg18
Nsg19
Nsg20
I11
sg21
Nsa(dp57
g2
Nsg3
g54
sg5
Nsg6
Nsg7
VSURAT TUGAS TIM SURVEY BEASISWA PERINTIS 2.0
p58
sg9
Nsg10
Nsg11
V012 / S.11 / YPM - 5000 / IV - 1439
p59
sg13
Nsg14
Nsg15
Nsg17
Nsg18
Nsg19
Nsg20
I12
sg21
Nsa(dp60
g2
Nsg3
VERI MARAWIJAYA
p61
sg5
Nsg6
Nsg7
VSURAT INVENTARISASI
p62
sg9
Nsg10
Nsg11
V013 / S.2 / YPM - D101 / IV - 1439
p63
sg13
Nsg14
Nsg15
Nsg17
Nsg18
VPARA MANAJER
p64
sg19
Nsg20
I13
sg21
Nsa(dp65
g2
Nsg3
VUMAR FAUZI
p66
sg5
Nsg6
Nsg7
VSURAT UNDANGAN DISKUSI DENGAN BPK. AGUS PURWANTO (GUSPUR)
p67
sg9
Nsg10
Nsg11
V014 / S.7 / YPM - 1000 / IV - 1439
p68
sg13
Nsg14
Nsg15
V03 Januari 2018
p69
sg17
Nsg18
VPENGURUS/MANAJER/AKTIVIS
p70
sg19
Nsg20
I14
sg21
Nsa(dp71
g2
Nsg3
g23
sg5
Nsg6
Nsg7
g24
sg9
Nsg10
Nsg11
V015 / S.9 / YPM - 1000 / IV - 1439
p72
sg13
Nsg14
Nsg15
Nsg17
Nsg18
VPT DAGO IT
p73
sg19
Nsg20
I15
sg21
Nsa(dp74
g2
Nsg3
g23
sg5
Nsg6
Nsg7
g24
sg9
Nsg10
Nsg11
V016 / S.9 / YPM - 1000 / IV - 1439
p75
sg13
Nsg14
Nsg15
Nsg17
Nsg18
VPT TSANA MULIA
p76
sg19
Nsg20
I16
sg21
Nsa(dp77
g2
Nsg3
VSH, SUW, AMY
p78
sg5
Nsg6
Nsg7
VSURAT KUASA BANK MUAMALAT
p79
sg9
Nsg10
Nsg11
V017 / S.8 / YPM - 1000 / IV - 1439
p80
sg13
Nsg14
Nsg15
Nsg17
Nsg18
Nsg19
Nsg20
I17
sg21
Nsa(dp81
g2
Nsg3
g78
sg5
Nsg6
Nsg7
VSURAT KUASA BANK BNI
p82
sg9
Nsg10
Nsg11
V018 / S.8 / YPM - 1000 / IV - 1439
p83
sg13
Nsg14
Nsg15
Nsg17
Nsg18
Nsg19
Nsg20
I18
sg21
Nsa(dp84
g2
Nsg3
g23
sg5
Nsg6
Nsg7
g24
sg9
Nsg10
Nsg11
V019 / S.9 / YPM - 1000 / IV - 1439
p85
sg13
Nsg14
Nsg15
Nsg17
Nsg18
g49
sg19
Nsg20
I19
sg21
Nsa(dp86
g2
Nsg3
g23
sg5
Nsg6
Nsg7
g24
sg9
Nsg10
Nsg11
V020 / S.9 / YPM - 1000 / IV - 1439
p87
sg13
Nsg14
Nsg15
Nsg17
Nsg18
VDEDY KURNIAWAN (EDU EDI)
p88
sg19
Nsg20
I20
sg21
Nsa(dp89
g2
Nsg3
g23
sg5
Nsg6
Nsg7
g24
sg9
Nsg10
Nsg11
V021 / S.9 / YPM - 1000 / IV - 1439
p90
sg13
Nsg14
Nsg15
Nsg17
Nsg18
VDWI LESMANA YULIANTO (DAPUR PULSA)
p91
sg19
Nsg20
I21
sg21
Nsa(dp92
g2
Nsg3
g54
sg5
Nsg6
Nsg7
VSURAT IZIN TIDAK MENGIKUTI KEGIATAN BELAJAR (PEMBINAAN 2 PEKANAN, BEASISWA PERINTIS 20.0)
p93
sg9
Nsg10
Nsg11
V022 / S.14 / YPM - 5000 / IV - 1439
p94
sg13
Nsg14
Nsg15
Nsg17
Nsg18
Nsg19
Nsg20
I22
sg21
Nsa(dp95
g2
Nsg3
g66
sg5
Nsg6
Nsg7
VSURAT KETERANGAN CV KARYA DAYA CIPTA (SUDARMONO SASMONO)
p96
sg9
Nsg10
Nsg11
V023 / S.4 / YPM - 1000 / IV - 1439
p97
sg13
Nsg14
Nsg15
V04 Januari 2018
p98
sg17
Nsg18
Nsg19
Nsg20
I23
sg21
Nsa(dp99
g2
Nsg3
Nsg5
Nsg6
Nsg7
VSURAT PERJANJIAN KONTRAK KERJA
p100
sg9
Nsg10
Nsg11
V024 / S.9 / YPM - 4000 / IV - 1439
p101
sg13
Nsg14
Nsg15
Nsg17
Nsg18
Nsg19
Nsg20
I24
sg21
Nsa(dp102
g2
Nsg3
Nsg5
Nsg6
Nsg7
VSURAT PERUBAHAN TANDA TANGAN (BNI)
p103
sg9
Nsg10
Nsg11
V025 / S.4 / YPM - 1000 / IV - 1439
p104
sg13
Nsg14
Nsg15
Nsg17
Nsg18
Nsg19
Nsg20
I25
sg21
Nsa(dp105
g2
Nsg3
Nsg5
Nsg6
Nsg7
VSURAT PERUBAHAN TANDA TANGAN (BMI)
p106
sg9
Nsg10
Nsg11
V026 / S.4 / YPM - 1000 / IV - 1439
p107
sg13
Nsg14
Nsg15
Nsg17
Nsg18
Nsg19
Nsg20
I26
sg21
Nsa(dp108
g2
Nsg3
Nsg5
Nsg6
Nsg7
VSERTIFIKAT SPECTRA
p109
sg9
Nsg10
Nsg11
V027 / S.4 / YPM - 5000 / IV - 1439
p110
sg13
Nsg14
Nsg15
V05 Januari 2018
p111
sg17
Nsg18
Nsg19
Nsg20
I27
sg21
Nsa(dp112
g2
Nsg3
Nsg5
Nsg6
Nsg7
VSURAT PERMOHONAN BIBIT
p113
sg9
Nsg10
Nsg11
V028 / S.6 / YPM - 5000 / IV - 1439
p114
sg13
Nsg14
Nsg15
Nsg17
Nsg18
Nsg19
Nsg20
I28
sg21
Nsa(dp115
g2
Nsg3
Nsg5
Nsg6
Nsg7
VSURAT TUGAS
p116
sg9
Nsg10
Nsg11
V029 / S.11 / YPM - 5000 / IV - 1439
p117
sg13
Nsg14
Nsg15
Nsg17
Nsg18
Nsg19
Nsg20
I29
sg21
Nsa(dp118
g2
Nsg3
Nsg5
Nsg6
Nsg7
VUNDANGAN RAPAT RENIP
p119
sg9
Nsg10
Nsg11
V030 / S.7 / YPM - 0000 / IV - 1439
p120
sg13
Nsg14
Nsg15
V06 Januari 2018
p121
sg17
Nsg18
Nsg19
Nsg20
I30
sg21
Nsa(dp122
g2
Nsg3
Nsg5
Nsg6
Nsg7
VSURAT KONTRAK SEWA RUANGAN (KANTIN)
p123
sg9
Nsg10
Nsg11
V031 / S.2 / YPM - D100 / IV - 1439
p124
sg13
Nsg14
Nsg15
Nsg17
Nsg18
Nsg19
Nsg20
I31
sg21
Nsa(dp125
g2
Nsg3
Nsg5
Nsg6
Nsg7
g24
sg9
Nsg10
Nsg11
V032 / S.9 / YPM - 1000 / IV - 1439
p126
sg13
Nsg14
Nsg15
Nsg17
Nsg18
VFRISTA RAGAM SANTIKA
p127
sg19
Nsg20
I32
sg21
Nsa(dp128
g2
Nsg3
Nsg5
Nsg6
Nsg7
g24
sg9
Nsg10
Nsg11
V033 / S.9 / YPM - 1000 / IV - 1439
p129
sg13
Nsg14
Nsg15
Nsg17
Nsg18
VGUMILAR RAHMAT HIDAYAT (FOTOCOPY)
p130
sg19
Nsg20
I33
sg21
Nsa(dp131
g2
Nsg3
Nsg5
Nsg6
Nsg7
g100
sg9
Nsg10
Nsg11
V034 / S.9 / YPM - 4000 / IV - 1439
p132
sg13
Nsg14
Nsg15
Nsg17
Nsg18
Nsg19
Nsg20
I34
sg21
Nsa(dp133
g2
Nsg3
Nsg5
Nsg6
Nsg7
g100
sg9
Nsg10
Nsg11
V035 / S.9 / YPM - 4000 / IV - 1439
p134
sg13
Nsg14
Nsg15
Nsg17
Nsg18
Nsg19
Nsg20
I35
sg21
Nsa(dp135
g2
Nsg3
Nsg5
Nsg6
Nsg7
VSK PENDIRIAN LEMBAGA PEMERIKSA HALAL
p136
sg9
Nsg10
Nsg11
V036 / S.1 / YPM - 1000 / IV - 1439
p137
sg13
Nsg14
Nsg15
Nsg17
Nsg18
Nsg19
Nsg20
I36
sg21
Nsa(dp138
g2
Nsg3
Nsg5
Nsg6
Nsg7
VSURAT PERMOHONAN AUDIENSI (PUSAT HALAL SALMAN)
p139
sg9
Nsg10
Nsg11
V037 / S.6 / YPM - B100 / IV - 1439
p140
sg13
Nsg14
Nsg15
V08 Januari 2018
p141
sg17
Nsg18
VKEPALA DINAS KOPERASI & UMKM JABAR
p142
sg19
Nsg20
I37
sg21
Nsa(dp143
g2
Nsg3
Nsg5
Nsg6
Nsg7
g24
sg9
Nsg10
Nsg11
V038 / S.9 / YPM - 1000 / IV - 1439
p144
sg13
Nsg14
Nsg15
Nsg17
Nsg18
VBPK. SAMSUL BACHRI
p145
sg19
Nsg20
I38
sg21
Nsa(dp146
g2
Nsg3
Nsg5
Nsg6
Nsg7
VSURAT KETERANGAN MENGIKUTSERTAKAN ORANG TUA (BPJS KESEHATAN)
p147
sg9
Nsg10
Nsg11
V039 / S.4 / YPM - D101 / IV - 1439
p148
sg13
Nsg14
Nsg15
V09 Januari 2018
p149
sg17
Nsg18
Nsg19
Nsg20
I39
sg21
Nsa(dp150
g2
Nsg3
Nsg5
Nsg6
Nsg7
VSERTIFIKAT BAHASA ARAB
p151
sg9
Nsg10
Nsg11
V040 / S.4 / YPM - 5000 / IV - 1439
p152
sg13
Nsg14
Nsg15
Nsg17
Nsg18
Nsg19
Nsg20
I40
sg21
Nsa(dp153
g2
Nsg3
Nsg5
Nsg6
Nsg7
VSURAT KUASA PENGURUSAN PAJAK
p154
sg9
Nsg10
Nsg11
V041 / S.8 / YPM - 3001 / IV - 1439
p155
sg13
Nsg14
Nsg15
Nsg17
Nsg18
Nsg19
Nsg20
I41
sg21
Nsa(dp156
g2
Nsg3
Nsg5
Nsg6
Nsg7
VSURAT PEMINJAMAN TEMPAT (MASJID AL-JABBAR - JATINANGOR)
p157
sg9
Nsg10
Nsg11
V042 / S.6 / YPM - 5000 / IV - 1439
p158
sg13
Nsg14
Nsg15
V10 Januari 2018
p159
sg17
Nsg18
Nsg19
Nsg20
I42
sg21
Nsa(dp160
g2
Nsg3
Nsg5
Nsg6
Nsg7
VSURAT KUNJUNGAN KE MUSEUM (FAMILY GATHERING ASRAMA)
p161
sg9
Nsg10
Nsg11
V043 / S.6 / YPM - 5000 / IV - 1439
p162
sg13
Nsg14
Nsg15
Nsg17
Nsg18
Nsg19
Nsg20
I43
sg21
Nsa(dp163
g2
Nsg3
Nsg5
Nsg6
Nsg7
VUNDANGAN RAPAT PEMBINA
p164
sg9
Nsg10
Nsg11
V044 / S.7 / YPM - 0000 / IV - 1439
p165
sg13
Nsg14
Nsg15
Nsg17
Nsg18
Nsg19
Nsg20
I44
sg21
Nsa(dp166
g2
Nsg3
Nsg5
Nsg6
Nsg7
VPENGANTAR PROPOSAL IQRO'
p167
sg9
Nsg10
Nsg11
V045 / S.10 / YPM - 6300 / IV - 1439
p168
sg13
Nsg14
Nsg15
Nsg17
Nsg18
Nsg19
Nsg20
I45
sg21
Nsa(dp169
g2
Nsg3
Nsg5
Nsg6
Nsg7
VSURAT PEMBERITAHUAN USULAN ADDENDUM PINJAMAN (6 BULAN)
p170
sg9
Nsg10
Nsg11
V046 / S.2 / YPM - C100 / IV - 1439
p171
sg13
Nsg14
Nsg15
V12 Januari 2018
p172
sg17
Nsg18
Nsg19
Nsg20
I46
sg21
Nsa(dp173
g2
Nsg3
Nsg5
Nsg6
Nsg7
VSURAT PERMOHONAN KHATIB SHALAT GERHANA BULAN
p174
sg9
Nsg10
Nsg11
V047 / S.6 / YPM - 1000 / IV - 1439
p175
sg13
Nsg14
Nsg15
V13 Januari 2018
p176
sg17
Nsg18
VProf. Dr. Taufik Hidayat, DEA
p177
sg19
Nsg20
I47
sg21
Nsa(dp178
g2
Nsg3
Nsg5
Nsg6
Nsg7
VSURAT UCAPAN TA'ZIAH (UST. HILMAN ROSYAD SHIHAB)
p179
sg9
Nsg10
Nsg11
V048 / S.12 / YPM - 1000 / IV - 1439
p180
sg13
Nsg14
Nsg15
V15 Januari 2018
p181
sg17
Nsg18
Nsg19
Nsg20
I48
sg21
Nsa(dp182
g2
Nsg3
Nsg5
Nsg6
Nsg7
VPERMOHONAN MAHASISWA MAGANG
p183
sg9
Nsg10
Nsg11
V049 / S.6 / YPM - 1000 / IV - 1439
p184
sg13
Nsg14
Nsg15
V16 Januari 2018
p185
sg17
Nsg18
VPRODI STEI ITB
p186
sg19
Nsg20
I49
sg21
Nsa(dp187
g2
Nsg3
Nsg5
Nsg6
Nsg7
VPERMOHONAN MAHASISWA KERJA PRAKTEK
p188
sg9
Nsg10
Nsg11
V050 / S.6 / YPM - 1000 / IV - 1439
p189
sg13
Nsg14
Nsg15
Nsg17
Nsg18
g186
sg19
Nsg20
I50
sg21
Nsa(dp190
g2
Nsg3
Nsg5
Nsg6
Nsg7
VPEMBERITAHUAN (KANTIN)
p191
sg9
Nsg10
Nsg11
V051 / S.2 / YPM - 1000 / IV - 1493
p192
sg13
Nsg14
Nsg15
Nsg17
Nsg18
Nsg19
Nsg20
I51
sg21
Nsa(dp193
g2
Nsg3
Nsg5
Nsg6
Nsg7
VSURAT UNDANGAN PENAWARAN DESAIN DAN PENGADAAN SOUND SYSTEM MASJID SALMAN ITB
p194
sg9
Nsg10
Nsg11
V052 / S.7 / YPM - D100 / IV - 1439
p195
sg13
Nsg14
Nsg15
Nsg17
Nsg18
VPT. GRACIA AUVINDO
p196
sg19
Nsg20
I52
sg21
Nsa(dp197
g2
Nsg3
Nsg5
Nsg6
Nsg7
VPENGAJUAN PROMOSI, MUTASI & UPGRADE KARYAWAN
p198
sg9
Nsg10
Nsg11
V053 / S.6 / YPM - D100 / IV - 1439
p199
sg13
Nsg14
Nsg15
Nsg17
Nsg18
VKETUA UMUM YPM SALMAN ITB
p200
sg19
Nsg20
I53
sg21
Nsa(dp201
g2
Nsg3
Nsg5
Nsg6
Nsg7
VPEMINJAMAN FASILITAS (TEMPAT PARKIR SR)
p202
sg9
Nsg10
Nsg11
V054 / S.6 / YPM - 5000 / IV - 1439
p203
sg13
Nsg14
Nsg15
V17 Januari 2018
p204
sg17
Nsg18
VSP ITB
p205
sg19
Nsg20
I54
sg21
Nsa(dp206
g2
Nsg3
Nsg5
Nsg6
Nsg7
g24
sg9
Nsg10
Nsg11
V055 / S.9 / YPM - 1000 / IV - 1439
p207
sg13
Nsg14
Nsg15
Nsg17
Nsg18
VARIS MUNANDAR - KANTIN SALMAN
p208
sg19
Nsg20
I55
sg21
Nsa(dp209
g2
Nsg3
Nsg5
Nsg6
Nsg7
VMOU PUSAT HALAL SALMAN ITB
p210
sg9
Nsg10
Nsg11
V056 / S.9 / YPM - 1000 / IV - 1439
p211
sg13
Nsg14
Nsg15
Nsg17
Nsg18
Nsg19
Nsg20
I56
sg21
Nsa(dp212
g2
Nsg3
Nsg5
Nsg6
Nsg7
VSURAT IZIN TEMPAT (PELANTIKAN SC LMD)
p213
sg9
Nsg10
Nsg11
V057 / S.6 / YPM - 5000 / IV - 1439
p214
sg13
Nsg14
Nsg15
Nsg17
Nsg18
VRT/RW CIMENYAN
p215
sg19
Nsg20
I57
sg21
Nsa(dp216
g2
Nsg3
Nsg5
Nsg6
Nsg7
VPEMINJAMAN FASILITAS (TAMAN GANESHA)
p217
sg9
Nsg10
Nsg11
V058 / S.6 / YPM - 5500 / IV - 1439
p218
sg13
Nsg14
Nsg15
Nsg17
Nsg18
g205
sg19
Nsg20
I58
sg21
Nsa(dp219
g2
Nsg3
Nsg5
Nsg6
Nsg7
VPERJANJIAN SERVICE INFOKUS
p220
sg9
Nsg10
Nsg11
V059 / S.9 / YPM - D101 / IV - 1439
p221
sg13
Nsg14
Nsg15
Nsg17
Nsg18
Nsg19
Nsg20
I59
sg21
Nsa(dp222
g2
Nsg3
Nsg5
Nsg6
Nsg7
VPUBLIKASI BHS ARAB & RUMAH QUR'AN
p223
sg9
Nsg10
Nsg11
V060 / S.2 / YPM - 4000 / IV - 1439
p224
sg13
Nsg14
Nsg15
Nsg17
Nsg18
Nsg19
Nsg20
I60
sg21
Nsa(dp225
g2
Nsg3
g54
sg5
Nsg6
Nsg7
VSURAT TUGAS (TIM BEASISWA PERINTIS) PEMBINAAN 2
p226
sg9
Nsg10
Nsg11
V061 / S.11 / YPM - 5000 / V - 1439
p227
sg13
Nsg14
Nsg15
V19 Januari 2018
p228
sg17
Nsg18
Nsg19
Nsg20
I61
sg21
Nsa(dp229
g2
Nsg3
g61
sg5
Nsg6
Nsg7
VSURAT TUGAS (PEMBIMBING IBADAH UMROH)
p230
sg9
Nsg10
Nsg11
V062 / S.11 / YPM - 2100 / V - 1439
p231
sg13
Nsg14
Nsg15
V20 Januari 2018
p232
sg17
Nsg18
VANDRI MULYADI
p233
sg19
Nsg20
I62
sg21
Nsa(dp234
g2
Nsg3
g31
sg5
Nsg6
Nsg7
VPERMOHONAN
p235
sg9
Nsg10
Nsg11
V063 / S.6 / YPM - D100 / V - 1439
p236
sg13
Nsg14
Nsg15
V22 Januari 2018
p237
sg17
Nsg18
Nsg19
Nsg20
I63
sg21
Nsa(dp238
g2
Nsg3
g66
sg5
Nsg6
Nsg7
VPERMOHONAN LAYANAN WEBMAIL & PLUG IN REDMINE
p239
sg9
Nsg10
Nsg11
V064 / S.6 / YPM - 1000 / V - 1439
p240
sg13
Nsg14
Nsg15
Nsg17
Nsg18
Nsg19
Nsg20
I64
sg21
Nsa(dp241
g2
Nsg3
g61
sg5
Nsg6
Nsg7
VTANGGAPAN PERMOHONAN TEMPAT PKL
p242
sg9
Nsg10
Nsg11
V065 / S.16 / YPM - 2100 / V - 1439
p243
sg13
Nsg14
Nsg15
Nsg17
Nsg18
Nsg19
Nsg20
I65
sg21
Nsa(dp244
g2
Nsg3
Nsg5
Nsg6
Nsg7
g242
sg9
Nsg10
Nsg11
V066 / S.16 / YPM - 2100 / V - 1439
p245
sg13
Nsg14
Nsg15
Nsg17
Nsg18
Nsg19
Nsg20
I66
sg21
Nsa(dp246
g2
Nsg3
Nsg5
Nsg6
Nsg7
VTANGGAPAN SEWA GEDUNG (PERPANJANG 6 BULAN)
p247
sg9
Nsg10
Nsg11
V067 / S.16 / YPM - D100 / V - 1439
p248
sg13
Nsg14
Nsg15
Nsg17
Nsg18
VBANK MUAMALAT
p249
sg19
Nsg20
I67
sg21
Nsa(dp250
g2
Nsg3
g61
sg5
Nsg6
Nsg7
g217
sg9
Nsg10
Nsg11
V068 / S.16 / YPM - 4000 / V - 1439
p251
sg13
Nsg14
Nsg15
Nsg17
Nsg18
g205
sg19
Nsg20
I68
sg21
Nsa(dp252
g2
Nsg3
Nsg5
Nsg6
Nsg7
VSK TIM AUDITOR HALAL LPH YPM SALMAN ITB
p253
sg9
Nsg10
Nsg11
V069 / S.1 / YPM - 1000 / V - 1439
p254
sg13
Nsg14
Nsg15
Nsg17
Nsg18
Nsg19
Nsg20
I69
sg21
Nsa(dp255
g2
Nsg3
Nsg5
Nsg6
Nsg7
VSURAT KEPUTUSAN SUSUNAN TIM PENGEMBANGAN MODEL SALMAN GREEN MOSQUE
p256
sg9
Nsg10
Nsg11
V070 / S.1 / YPM - 1000 / V - 1439
p257
sg13
Nsg14
Nsg15
Nsg17
Nsg18
Nsg19
Nsg20
I70
sg21
Nsa(dp258
g2
Nsg3
Nsg5
Nsg6
Nsg7
VPERMOHONAN DUKUNGAN TRANSPORT DAN AKOMODASI
p259
sg9
Nsg10
Nsg11
V071 / S.6 / YPM - 6300 / V - 1439
p260
sg13
Nsg14
Nsg15
Nsg17
Nsg18
Nsg19
Nsg20
I71
sg21
Nsa(dp261
g2
Nsg3
Nsg5
Nsg6
Nsg7
VUCAPAN TERIMA KASIH
p262
sg9
Nsg10
Nsg11
V072 / S.12 / YPM - 4400 / V - 1439
p263
sg13
Nsg14
Nsg15
Nsg17
Nsg18
VGUBERNUR JABAR
p264
sg19
Nsg20
I72
sg21
Nsa(dp265
g2
Nsg3
Nsg5
Nsg6
Nsg7
VPERMOHONAN PENEMPATAN SALIM RUSLI SEBAGAI TPHD
p266
sg9
Nsg10
Nsg11
V073 / S.6 / YPM - 4400 / V - 1439
p267
sg13
Nsg14
Nsg15
Nsg17
Nsg18
g264
sg19
Nsg20
I73
sg21
Nsa(dp268
g2
Nsg3
VSUPARNO SATIRA
p269
sg5
Nsg6
Nsg7
VSURAT KEPUTUSAN PENGESAHAN RKA 2018
p270
sg9
Nsg10
Nsg11
V074 / S.1 / YPM - 0000 / V - 1439
p271
sg13
Nsg14
Nsg15
V24 Januari 2018
p272
sg17
Nsg18
Nsg19
Nsg20
I74
sg21
Nsa(dp273
g2
Nsg3
Nsg5
Nsg6
Nsg7
VTANGGAPAN PERMINTAAN SETORAN SAHAM
p274
sg9
Nsg10
Nsg11
V075 / S.16 / YPM - 1000 / V - 1439
p275
sg13
Nsg14
Nsg15
Nsg17
Nsg18
VPT SALMAN RASIDI SEMESTA
p276
sg19
Nsg20
I75
sg21
Nsa(dp277
g2
Nsg3
Nsg5
Nsg6
Nsg7
VSURAT IZIN TDK MENGIKUTI AKTIVITAS DI KAMPUS
p278
sg9
Nsg10
Nsg11
V076 / S.14 / YPM - 5000 / V - 1439
p279
sg13
Nsg14
Nsg15
V25 Januari 2018
p280
sg17
Nsg18
Nsg19
Nsg20
I76
sg21
Nsa(dp281
g2
Nsg3
Nsg5
Nsg6
Nsg7
VSURAT KONTRAK KERJA (DHANYAWAN)
p282
sg9
Nsg10
Nsg11
V077 / S.9 / YPM - 6000 / V - 1439
p283
sg13
Nsg14
Nsg15
Nsg17
Nsg18
Nsg19
Nsg20
I77
sg21
Nsa(dp284
g2
Nsg3
Nsg5
Nsg6
Nsg7
VSURAT KONTRAK KERJA (ADITYA FIRMANSYAH)
p285
sg9
Nsg10
Nsg11
V078 / S.9 / YPM - 6000 / V - 1439
p286
sg13
Nsg14
Nsg15
Nsg17
Nsg18
Nsg19
Nsg20
I78
sg21
Nsa(dp287
g2
Nsg3
Nsg5
Nsg6
Nsg7
VSURAT IZIN TDK MENGIKUTI KEGIATAN PEL. KSLMTN KERJA
p288
sg9
Nsg10
Nsg11
V079 / S.14 / YPM - 5000 / V - 1439
p289
sg13
Nsg14
Nsg15
Nsg17
Nsg18
Nsg19
Nsg20
I79
sg21
Nsa(dp290
g2
Nsg3
Nsg5
Nsg6
Nsg7
VNOTA KESEPAHAMAN PEMBIAYAAN FILM IQRO' - MY UNIVERSE
p291
sg9
Nsg10
Nsg11
V080 / S.9 / YPM - 6300 / V - 1439
p292
sg13
Nsg14
Nsg15
V26 Januari 2018
p293
sg17
Nsg18
Nsg19
Nsg20
I80
sg21
Nsa(dp294
g2
Nsg3
Nsg5
Nsg6
Nsg7
VSURAT KETERANGAN PERNAH AKTIF DI SALMAN
p295
sg9
Nsg10
Nsg11
V081 / S.4 / YPM - 5000 / V - 1439
p296
sg13
Nsg14
Nsg15
V27 Januari 2018
p297
sg17
Nsg18
Nsg19
Nsg20
I81
sg21
Nsa(dp298
g2
Nsg3
Nsg5
Nsg6
Nsg7
VSERTIFIKAT SSC 14
p299
sg9
Nsg10
Nsg11
V082 / S.4 / YPM - 5000 / V - 1439
p300
sg13
Nsg14
Nsg15
Nsg17
Nsg18
Nsg19
Nsg20
I82
sg21
Nsa(dp301
g2
Nsg3
Nsg5
Nsg6
Nsg7
VSURAT IZIN PESERTA TDK MENGIKUTI KEGIATAN RUTIN
p302
sg9
Nsg10
Nsg11
V083 / S.14 / YPM - 4000 / V - 1439
p303
sg13
Nsg14
Nsg15
Nsg17
Nsg18
Nsg19
Nsg20
I83
sg21
Nsa(dp304
g2
Nsg3
Nsg5
Nsg6
Nsg7
VSURAT UCAPAN TAZIAH (BAPAK SISNEN SISWO MULYONO - AYAHANDA BUDI SETYOWARNO)
p305
sg9
Nsg10
Nsg11
V084 / S.12 / YPM - 2100 / V - 1439
p306
sg13
Nsg14
Nsg15
V29 Januari 2018
p307
sg17
Nsg18
Nsg19
Nsg20
I84
sg21
Nsa(dp308
g2
Nsg3
Nsg5
Nsg6
Nsg7
VUNDANGAN PESERTA LMD PEMUDA MASJID
p309
sg9
Nsg10
Nsg11
V085 / S.7 / YPM - 5000 / V - 1439
p310
sg13
Nsg14
Nsg15
Nsg17
Nsg18
Nsg19
Nsg20
I85
sg21
Nsa(dp311
g2
Nsg3
Nsg5
Nsg6
Nsg7
VSERTIFIKAT KOMPETENSI GURU BIDANG STUDI
p312
sg9
Nsg10
Nsg11
V086 / S.4 / YPM - 7000 / V - 1439
p313
sg13
Nsg14
Nsg15
Nsg17
Nsg18
Nsg19
Nsg20
I86
sg21
Nsa(dp314
g2
Nsg3
Nsg5
Nsg6
Nsg7
VSURAT KETERANGAN AKTIVIS (AKMAL REZA AHKAM)
p315
sg9
Nsg10
Nsg11
V087 / S.4 / YPM - 5000 / V - 1439
p316
sg13
Nsg14
Nsg15
V30 Januari 2018
p317
sg17
Nsg18
Nsg19
Nsg20
I87
sg21
Nsa(dp318
g2
Nsg3
Nsg5
Nsg6
Nsg7
VSURAT KETERANGAN AKTIVIS (AZKA ZAKIYATUDDIN)
p319
sg9
Nsg10
Nsg11
V088 / S.4 / YPM - 5000 / V - 1439
p320
sg13
Nsg14
Nsg15
Nsg17
Nsg18
Nsg19
Nsg20
I88
sg21
Nsa(dp321
g2
Nsg3
Nsg5
Nsg6
Nsg7
VSURAT KETERANGAN AKTIVIS (TAUFIK AL AMIN)
p322
sg9
Nsg10
Nsg11
V089 / S.4 / YPM - 5000 / V - 1439
p323
sg13
Nsg14
Nsg15
Nsg17
Nsg18
Nsg19
Nsg20
I89
sg21
Nsa(dp324
g2
Nsg3
Nsg5
Nsg6
Nsg7
VSURAT EDARAN KUPON MAKAN
p325
sg9
Nsg10
Nsg11
V090 / S.3 / YPM - D101 / V - 1439
p326
sg13
Nsg14
Nsg15
V31 Januari 2018
p327
sg17
Nsg18
Nsg19
Nsg20
I90
sg21
Nsa(dp328
g2
Nsg3
Nsg5
Nsg6
Nsg7
VSK KENAIKAN PANGKAT
p329
sg9
Nsg10
Nsg11
V091 / S.1 / YPM - 1000 / V - 1439
p330
sg13
Nsg14
Nsg15
Nsg17
Nsg18
Nsg19
Nsg20
I91
sg21
Nsa(dp331
g2
Nsg3
Nsg5
Nsg6
Nsg7
g329
sg9
Nsg10
Nsg11
V092 / S.1 / YPM - 1000 / V - 1439
p332
sg13
Nsg14
Nsg15
Nsg17
Nsg18
Nsg19
Nsg20
I92
sg21
Nsa(dp333
g2
Nsg3
Nsg5
Nsg6
Nsg7
g329
sg9
Nsg10
Nsg11
V093 / S.1 / YPM - 1000 / V - 1439
p334
sg13
Nsg14
Nsg15
Nsg17
Nsg18
Nsg19
Nsg20
I93
sg21
Nsa(dp335
g2
Nsg3
Nsg5
Nsg6
Nsg7
g329
sg9
Nsg10
Nsg11
V094 / S.1 / YPM - 1000 / V - 1439
p336
sg13
Nsg14
Nsg15
Nsg17
Nsg18
Nsg19
Nsg20
I94
sg21
Nsa(dp337
g2
Nsg3
Nsg5
Nsg6
Nsg7
g329
sg9
Nsg10
Nsg11
V095 / S.1 / YPM - 1000 / V - 1439
p338
sg13
Nsg14
Nsg15
Nsg17
Nsg18
Nsg19
Nsg20
I95
sg21
Nsa(dp339
g2
Nsg3
Nsg5
Nsg6
Nsg7
g329
sg9
Nsg10
Nsg11
V096 / S.1 / YPM - 1000 / V - 1439
p340
sg13
Nsg14
Nsg15
Nsg17
Nsg18
Nsg19
Nsg20
I96
sg21
Nsa(dp341
g2
Nsg3
Nsg5
Nsg6
Nsg7
g329
sg9
Nsg10
Nsg11
V097 / S.1 / YPM - 1000 / V - 1439
p342
sg13
Nsg14
Nsg15
Nsg17
Nsg18
Nsg19
Nsg20
I97
sg21
Nsa(dp343
g2
Nsg3
Nsg5
Nsg6
Nsg7
g329
sg9
Nsg10
Nsg11
V098 / S.1 / YPM - 1000 / V - 1439
p344
sg13
Nsg14
Nsg15
Nsg17
Nsg18
Nsg19
Nsg20
I98
sg21
Nsa(dp345
g2
Nsg3
Nsg5
Nsg6
Nsg7
g329
sg9
Nsg10
Nsg11
V099 / S.1 / YPM - 1000 / V - 1439
p346
sg13
Nsg14
Nsg15
Nsg17
Nsg18
Nsg19
Nsg20
I99
sg21
Nsa(dp347
g2
Nsg3
Nsg5
Nsg6
Nsg7
g329
sg9
Nsg10
Nsg11
V100 / S.1 / YPM - 1000 / V - 1439
p348
sg13
Nsg14
Nsg15
Nsg17
Nsg18
Nsg19
Nsg20
I100
sg21
Nsa(dp349
g2
Nsg3
Nsg5
Nsg6
Nsg7
g329
sg9
Nsg10
Nsg11
V101 / S.1 / YPM - 1000 / V - 1439
p350
sg13
Nsg14
Nsg15
Nsg17
Nsg18
Nsg19
Nsg20
I101
sg21
Nsa(dp351
g2
Nsg3
Nsg5
Nsg6
Nsg7
g329
sg9
Nsg10
Nsg11
V102 / S.1 / YPM - 1000 / V - 1439
p352
sg13
Nsg14
Nsg15
Nsg17
Nsg18
Nsg19
Nsg20
I102
sg21
Nsa(dp353
g2
Nsg3
Nsg5
Nsg6
Nsg7
g329
sg9
Nsg10
Nsg11
V103 / S.1 / YPM - 1000 / V - 1439
p354
sg13
Nsg14
Nsg15
Nsg17
Nsg18
Nsg19
Nsg20
I103
sg21
Nsa(dp355
g2
Nsg3
Nsg5
Nsg6
Nsg7
g329
sg9
Nsg10
Nsg11
V104 / S.1 / YPM - 1000 / V - 1439
p356
sg13
Nsg14
Nsg15
Nsg17
Nsg18
Nsg19
Nsg20
I104
sg21
Nsa(dp357
g2
Nsg3
Nsg5
Nsg6
Nsg7
g329
sg9
Nsg10
Nsg11
V105 / S.1 / YPM - 1000 / V - 1439
p358
sg13
Nsg14
Nsg15
Nsg17
Nsg18
Nsg19
Nsg20
I105
sg21
Nsa(dp359
g2
Nsg3
Nsg5
Nsg6
Nsg7
g329
sg9
Nsg10
Nsg11
V106 / S.1 / YPM - 1000 / V - 1439
p360
sg13
Nsg14
Nsg15
Nsg17
Nsg18
Nsg19
Nsg20
I106
sg21
Nsa(dp361
g2
Nsg3
Nsg5
Nsg6
Nsg7
g329
sg9
Nsg10
Nsg11
V107 / S.1 / YPM - 1000 / V - 1439
p362
sg13
Nsg14
Nsg15
Nsg17
Nsg18
Nsg19
Nsg20
I107
sg21
Nsa(dp363
g2
Nsg3
Nsg5
Nsg6
Nsg7
g329
sg9
Nsg10
Nsg11
V108 / S.1 / YPM - 1000 / V - 1439
p364
sg13
Nsg14
Nsg15
Nsg17
Nsg18
Nsg19
Nsg20
I108
sg21
Nsa(dp365
g2
Nsg3
Nsg5
Nsg6
Nsg7
g329
sg9
Nsg10
Nsg11
V109 / S.1 / YPM - 1000 / V - 1439
p366
sg13
Nsg14
Nsg15
Nsg17
Nsg18
Nsg19
Nsg20
I109
sg21
Nsa(dp367
g2
Nsg3
Nsg5
Nsg6
Nsg7
g329
sg9
Nsg10
Nsg11
V110 / S.1 / YPM - 1000 / V - 1439
p368
sg13
Nsg14
Nsg15
Nsg17
Nsg18
Nsg19
Nsg20
I110
sg21
Nsa(dp369
g2
Nsg3
Nsg5
Nsg6
Nsg7
g329
sg9
Nsg10
Nsg11
V111 / S.1 / YPM - 1000 / V - 1439
p370
sg13
Nsg14
Nsg15
Nsg17
Nsg18
Nsg19
Nsg20
I111
sg21
Nsa(dp371
g2
Nsg3
Nsg5
Nsg6
Nsg7
g329
sg9
Nsg10
Nsg11
V112 / S.1 / YPM - 1000 / V - 1439
p372
sg13
Nsg14
Nsg15
Nsg17
Nsg18
Nsg19
Nsg20
I112
sg21
Nsa(dp373
g2
Nsg3
Nsg5
Nsg6
Nsg7
g329
sg9
Nsg10
Nsg11
V113 / S.1 / YPM - 1000 / V - 1439
p374
sg13
Nsg14
Nsg15
Nsg17
Nsg18
Nsg19
Nsg20
I113
sg21
Nsa(dp375
g2
Nsg3
Nsg5
Nsg6
Nsg7
g329
sg9
Nsg10
Nsg11
V114 / S.1 / YPM - 1000 / V - 1439
p376
sg13
Nsg14
Nsg15
Nsg17
Nsg18
Nsg19
Nsg20
I114
sg21
Nsa(dp377
g2
Nsg3
Nsg5
Nsg6
Nsg7
g329
sg9
Nsg10
Nsg11
V115 / S.1 / YPM - 1000 / V - 1439
p378
sg13
Nsg14
Nsg15
Nsg17
Nsg18
Nsg19
Nsg20
I115
sg21
Nsa(dp379
g2
Nsg3
Nsg5
Nsg6
Nsg7
VAKHIR MASA KONTRAK SEWA RUANGAN
p380
sg9
Nsg10
Nsg11
V116 / S.2 / YPM - D100 / V - 1439
p381
sg13
Nsg14
Nsg15
Nsg17
Nsg18
VPT SYNA TEKNIKA / PT SYERGIE INDO PRIMA
p382
sg19
Nsg20
I116
sg21
Nsa(dp383
g2
Nsg3
Nsg5
Nsg6
Nsg7
VKONTRAK SEWA RUANGAN
p384
sg9
Nsg10
Nsg11
V117 / S.2 / YPM - D100 / V - 1439
p385
sg13
Nsg14
Nsg15
Nsg17
Nsg18
VPT ELEKTRONIKA UTAMA
p386
sg19
Nsg20
I117
sg21
Nsa(dp387
g2
Nsg3
Nsg5
Nsg6
Nsg7
g384
sg9
Nsg10
Nsg11
V118 / S.2 / YPM - D100 / V - 1439
p388
sg13
Nsg14
Nsg15
Nsg17
Nsg18
VTOKO ISTEK
p389
sg19
Nsg20
I118
sg21
Nsa(dp390
g2
Nsg3
g23
sg5
Nsg6
Nsg7
VPENGANTAR RKA 2018
p391
sg9
Nsg10
Nsg11
V119 / S.10 / YPM - 1000 / V - 1439
p392
sg13
Nsg14
Nsg15
V01 Februari 2018
p393
sg17
Nsg18
VPEMBINA YPM SALMAN ITB
p394
sg19
Nsg20
I119
sg21
Nsa(dp395
g2
Nsg3
Nsg5
Nsg6
Nsg7
VSERTIFIKAT LMD TAKMIR/PEMUDA MASJID
p396
sg9
Nsg10
Nsg11
V120 / S.4 / YPM - 5000 / V - 1439
p397
sg13
Nsg14
Nsg15
Nsg17
Nsg18
Nsg19
Nsg20
I120
sg21
Nsa(dp398
g2
Nsg3
Nsg5
Nsg6
Nsg7
VPEMATERI PELATIHAN GURU
p399
sg9
Nsg10
Nsg11
V121 / S.6 / YPM - 7000 / V - 1439
p400
sg13
Nsg14
Nsg15
V02 Februari 2018
p401
sg17
Nsg18
Nsg19
Nsg20
I121
sg21
Nsa(dp402
g2
Nsg3
Nsg5
Nsg6
Nsg7
VUNDANGAN IKUT SERTA MENYAMBUT TAMU UII JOGJA
p403
sg9
Nsg10
Nsg11
V122 / S.7 / YPM - 2100 / V - 1439
p404
sg13
Nsg14
Nsg15
Nsg17
Nsg18
Nsg19
Nsg20
I122
sg21
Nsa(dp405
g2
Nsg3
Nsg5
Nsg6
Nsg7
VPERMOHONAN NARASUMBER GSJN
p406
sg9
Nsg10
Nsg11
V123 / S.6 / YPM - 5000 / V - 1439
p407
sg13
Nsg14
Nsg15
V03 Februari 2018
p408
sg17
Nsg18
Nsg19
Nsg20
I123
sg21
Nsa(dp409
g2
Nsg3
Nsg5
Nsg6
Nsg7
VNOTA KESEPAHAMAN (PAK DASEP)
p410
sg9
Nsg10
Nsg11
V124 / S.9 / YPM - 2000 / V - 1439
p411
sg13
Nsg14
Nsg15
Nsg17
Nsg18
Nsg19
Nsg20
I124
sg21
Nsa(dp412
g2
Nsg3
Nsg5
Nsg6
Nsg7
VSURAT PERMOHONAN KESEDIAAN MENJADI DEWAN SYARIAH PUSAT HALAL SALMAN ITB
p413
sg9
Nsg10
Nsg11
V125 / S.6 / YPM - B100 / V - 1439
p414
sg13
Nsg14
Nsg15
V05 Februari 2018
p415
sg17
Nsg18
Nsg19
Nsg20
I125
sg21
Nsa(dp416
g2
Nsg3
Nsg5
Nsg6
Nsg7
VSERTIFIKAT KOORDINATOR ASISTEN AEI
p417
sg9
Nsg10
Nsg11
V126 / S.4 / YPM - 5000 / V - 1439
p418
sg13
Nsg14
Nsg15
V06 Februari 2018
p419
sg17
Nsg18
Nsg19
Nsg20
I126
sg21
Nsa(dp420
g2
Nsg3
Nsg5
Nsg6
Nsg7
VSERTIFIKAT ASISTEN AEI
p421
sg9
Nsg10
Nsg11
V127 / S.4 / YPM - 5000 / V - 1439
p422
sg13
Nsg14
Nsg15
Nsg17
Nsg18
Nsg19
Nsg20
I127
sg21
Nsa(dp423
g2
Nsg3
Nsg5
Nsg6
Nsg7
VSURAT KUASA PERPANJANGAN STNK D 1158 ABL (PAJAK 1 TAHUN)
p424
sg9
Nsg10
Nsg11
V128 / S.8 / YPM - D101 / V - 1439
p425
sg13
Nsg14
Nsg15
Nsg17
Nsg18
Nsg19
Nsg20
I128
sg21
Nsa(dp426
g2
Nsg3
Nsg5
Nsg6
Nsg7
VUNDANGAN RAPAT KBIH
p427
sg9
Nsg10
Nsg11
V129 / S.7 / YPM - 4400 / V - 1439
p428
sg13
Nsg14
Nsg15
V07 Februari 2018
p429
sg17
Nsg18
Nsg19
Nsg20
I129
sg21
Nsa(dp430
g2
Nsg3
Nsg5
Nsg6
Nsg7
VPERMOHONAN PENINJAUAN KEMBALI GOLONGAN TARIF
p431
sg9
Nsg10
Nsg11
V130 / S.6 / YPM - 5000 / V - 1439
p432
sg13
Nsg14
Nsg15
Nsg17
Nsg18
VKEPALA PDAM TIRTAWENING BANDUNG
p433
sg19
Nsg20
I130
sg21
Nsa(dp434
g2
Nsg3
Nsg5
Nsg6
Nsg7
VPERMOHONAN PEMATERI
p435
sg9
Nsg10
Nsg11
V131 / S.6 / YPM - 5000 / V - 1439
p436
sg13
Nsg14
Nsg15
Nsg17
Nsg18
Nsg19
Nsg20
I131
sg21
Nsa(dp437
g2
Nsg3
Nsg5
Nsg6
Nsg7
g302
sg9
Nsg10
Nsg11
V132 / S.14 / YPM - 5000 / V - 1439
p438
sg13
Nsg14
Nsg15
Nsg17
Nsg18
Nsg19
Nsg20
I132
sg21
Nsa(dp439
g2
Nsg3
Nsg5
Nsg6
Nsg7
VIKRAR ISLAM (GAUTHIER PIERRE PLACIDE JACQUET)
p440
sg9
Nsg10
Nsg11
V133 / S.4 / YPM - 4000 / V - 1439
p441
sg13
Nsg14
Nsg15
Nsg17
Nsg18
Nsg19
Nsg20
I133
sg21
Nsa(dp442
g2
Nsg3
Nsg5
Nsg6
Nsg7
VSURAT UCAPAN TAZIAH (BAPAK CAPT. ABIYOGA DASUKI BIN MOH. SADELI DASUKI)
p443
sg9
Nsg10
Nsg11
V134 / S.12 / YPM - 1000 / V - 1439
p444
sg13
Nsg14
Nsg15
Nsg17
Nsg18
Nsg19
Nsg20
I134
sg21
Nsa(dp445
g2
Nsg3
Nsg5
Nsg6
Nsg7
VSURAT KEPUTUSAN TIM ARSITEK SALMAN ITB
p446
sg9
Nsg10
Nsg11
V135 / S.1 / YPM - 1000 / V - 1439
p447
sg13
Nsg14
Nsg15
Nsg17
Nsg18
Nsg19
Nsg20
I135
sg21
Nsa(dp448
g2
Nsg3
Nsg5
Nsg6
Nsg7
VPENGANTAR BUKU SAKU SALMAN ITB
p449
sg9
Nsg10
Nsg11
V136 / S.10 / YPM - 1000 / V - 1439
p450
sg13
Nsg14
Nsg15
Nsg17
Nsg18
Nsg19
Nsg20
I136
sg21
Nsa(dp451
g2
Nsg3
Nsg5
Nsg6
Nsg7
VUNDANGAN RAPAT TIM FUNDRAISING
p452
sg9
Nsg10
Nsg11
V137 / S.7 / YPM - 0000 / V - 1439
p453
sg13
Nsg14
Nsg15
V08 Februari 2018
p454
sg17
Nsg18
Nsg19
Nsg20
I137
sg21
Nsa(dp455
g2
Nsg3
Nsg5
Nsg6
Nsg7
g24
sg9
Nsg10
Nsg11
V138 / S.9 / YPM - 1000 / V - 1439
p456
sg13
Nsg14
Nsg15
V09 Februari 2018
p457
sg17
Nsg18
g389
sg19
Nsg20
I138
sg21
Nsa(dp458
g2
Nsg3
Nsg5
Nsg6
Nsg7
VSURAT TANGGAPAN PERMOHONAN UNTUK PENAMBAHAN/PERLUASAN RUANGAN
p459
sg9
Nsg10
Nsg11
V140 / S.16 / YPM - D100 / V - 1439
p460
sg13
Nsg14
Nsg15
Nsg17
Nsg18
VPT QUADRAN ENERGI REKAYASA
p461
sg19
Nsg20
I139
sg21
Nsa(dp462
g2
Nsg3
Nsg5
Nsg6
Nsg7
VSURAT IZIN TDK MENGIKUTI KEGIATAN KAMPUS
p463
sg9
Nsg10
Nsg11
V141 / S.14 / YPM - 5000 / V - 1439
p464
sg13
Nsg14
Nsg15
Nsg17
Nsg18
Nsg19
Nsg20
I140
sg21
Nsa(dp465
g2
Nsg3
Nsg5
Nsg6
Nsg7
VSURAT IZIN TEMPAT
p466
sg9
Nsg10
Nsg11
V142 / S.6 / YPM - 5000 / V - 1439
p467
sg13
Nsg14
Nsg15
V10 Februari 2018
p468
sg17
Nsg18
Nsg19
Nsg20
I141
sg21
Nsa(dp469
g2
Nsg3
Nsg5
Nsg6
Nsg7
VSURAT EDARAN AKTIVIS
p470
sg9
Nsg10
Nsg11
V143 / S.3 / YPM - 5000 / V - 1439
p471
sg13
Nsg14
Nsg15
V11 Februari 2018
p472
sg17
Nsg18
Nsg19
Nsg20
I142
sg21
Nsa(dp473
g2
Nsg3
Nsg5
Nsg6
Nsg7
VSURAT EDARAN PEMBINAAN KARYAWAN
p474
sg9
Nsg10
Nsg11
V144 / S.3 / YPM - D101 / V - 1439
p475
sg13
Nsg14
Nsg15
V12 Februari 2018
p476
sg17
Nsg18
Nsg19
Nsg20
I143
sg21
Nsa(dp477
g2
Nsg3
Nsg5
Nsg6
Nsg7
VPERMOHONAN PEMINJAMAN TEMPAT (MASJID AL-JABBAR ITB)
p478
sg9
Nsg10
Nsg11
V145 / S.6 / YPM - 5000 / V - 1439
p479
sg13
Nsg14
Nsg15
Nsg17
Nsg18
VDKM AL-JABBAR ITB JATINANGOR
p480
sg19
Nsg20
I144
sg21
Nsa(dp481
g2
Nsg3
Nsg5
Nsg6
Nsg7
VPEMBERITAHUAN PENGUNDURAN DIRI PESERTA PERINTIS
p482
sg9
Nsg10
Nsg11
V146 / S.2 / YPM - 5000 / V - 1439
p483
sg13
Nsg14
Nsg15
Nsg17
Nsg18
Nsg19
Nsg20
I145
sg21
Nsa(dp484
g2
Nsg3
Nsg5
Nsg6
Nsg7
VINJECT KARTU SMARTFREN
p485
sg9
Nsg10
Nsg11
V147 / S.6 / YPM - D101 / V - 1439
p486
sg13
Nsg14
Nsg15
V13 Februari 2018
p487
sg17
Nsg18
Nsg19
Nsg20
I146
sg21
Nsa(dp488
g2
Nsg3
Nsg5
Nsg6
Nsg7
VSURAT IZIN TDK IKUT KEGIATAN KAMPUS
p489
sg9
Nsg10
Nsg11
V148 / S.14 / YPM - 5000 / V - 1439
p490
sg13
Nsg14
Nsg15
Nsg17
Nsg18
Nsg19
Nsg20
I147
sg21
Nsa(dp491
g2
Nsg3
Nsg5
Nsg6
Nsg7
VPERUBAHAN TANDATANGAN
p492
sg9
Nsg10
Nsg11
V149 / S.4 / YPM - 1000 / V - 1439
p493
sg13
Nsg14
Nsg15
V14 Februari 2018
p494
sg17
Nsg18
Nsg19
Nsg20
I148
sg21
Nsa(dp495
g2
Nsg3
Nsg5
Nsg6
Nsg7
VSK PEMBENTUKAN UNIT KOMUNITAS ANIMASI SALMAN (KOANISA) ITB
p496
sg9
Nsg10
Nsg11
V150 / S.1 / YPM - 1000 / V - 1439
p497
sg13
Nsg14
Nsg15
Nsg17
Nsg18
Nsg19
Nsg20
I149
sg21
Nsa(dp498
g2
Nsg3
Nsg5
Nsg6
Nsg7
VTANGGAPAN SURAT PEMINJAMAN BRANGKAS
p499
sg9
Nsg10
Nsg11
V151 / S.16 / YPM - 2100 / V - 1439
p500
sg13
Nsg14
Nsg15
Nsg17
Nsg18
Nsg19
Nsg20
I150
sg21
Nsa(dp501
g2
Nsg3
g61
sg5
Nsg6
Nsg7
VTANGGAPAN PERMOHONAN KERJASAMA PENYELENGGARAAN HALAQOH KONSTITUSI
p502
sg9
Nsg10
Nsg11
V152 / S.16 / YPM - 2100 / V - 1439
p503
sg13
Nsg14
Nsg15
Nsg17
Nsg18
Nsg19
Nsg20
I151
sg21
Nsa(dp504
g2
Nsg3
VDINA SUDJANA
p505
sg5
Nsg6
Nsg7
VSURAT TUGAS AUDITOR HALAL (PELATIHAN INTERNAL AUDIT SJH)
p506
sg9
Nsg10
Nsg11
V153 / S.11 / YPM - B100 / V - 1439
p507
sg13
Nsg14
Nsg15
Nsg17
Nsg18
VSHINTA ASARINA
p508
sg19
Nsg20
I152
sg21
Nsa(dp509
g2
Nsg3
g66
sg5
Nsg6
Nsg7
VSURAT PEMBERITAHUAN PIKET SHALAT JUMAT 2018
p510
sg9
Nsg10
Nsg11
V154 / S.2 / YPM - 1000 / V - 1439
p511
sg13
Nsg14
Nsg15
Nsg17
Nsg18
VPENGURUS & MANAJEMEN
p512
sg19
Nsg20
I153
sg21
Nsa(dp513
g2
Nsg3
Nsg5
Nsg6
Nsg7
VSURAT PEMINJAMAN TAMAN GANESHA
p514
sg9
Nsg10
Nsg11
V155 / S.6 / YPM - 5000 / V - 1439
p515
sg13
Nsg14
Nsg15
Nsg17
Nsg18
Nsg19
Nsg20
I154
sg21
Nsa(dp516
g2
Nsg3
Nsg5
Nsg6
Nsg7
VSURAT TUGAS RAPAT KOORDINASI FGD CALON LPH
p517
sg9
Nsg10
Nsg11
V156 / S.11 / YPM - B100 / V - 1439
p518
sg13
Nsg14
Nsg15
V15 Februari 2018
p519
sg17
Nsg18
Nsg19
Nsg20
I155
sg21
Nsa(dp520
g2
Nsg3
Nsg5
Nsg6
Nsg7
VSURAT PEMBERITAHUAN KEGIATAN KELILING KAMPUS
p521
sg9
Nsg10
Nsg11
V157 / S.2 / YPM - 2100 / V - 1439
p522
sg13
Nsg14
Nsg15
Nsg17
Nsg18
Nsg19
Nsg20
I156
sg21
Nsa(dp523
g2
Nsg3
Nsg5
Nsg6
Nsg7
VUNDANGAN (PRE EVENT BANDUNG DREAMIN)
p524
sg9
Nsg10
Nsg11
V158 / S.7 / YPM - 5400 / V - 1439
p525
sg13
Nsg14
Nsg15
Nsg17
Nsg18
VKETUA OSIS SMP/SMA
p526
sg19
Nsg20
I157
sg21
Nsa(dp527
g2
Nsg3
Nsg5
Nsg6
Nsg7
VPEMINJAMAN TEMPAT (BANDUNG CREATIVE HUB)
p528
sg9
Nsg10
Nsg11
V159 / S.6 / YPM - 5400 / V - 1439
p529
sg13
Nsg14
Nsg15
Nsg17
Nsg18
Nsg19
Nsg20
I158
sg21
Nsa(dp530
g2
Nsg3
Nsg5
Nsg6
Nsg7
VPERMOHONAN PEMBEBASTUGASAN SDRI. SITI AISYA
p531
sg9
Nsg10
Nsg11
V160 / S.6 / YPM - 2000 / V - 1439
p532
sg13
Nsg14
Nsg15
Nsg17
Nsg18
VKETUA BMKA
p533
sg19
Nsg20
I159
sg21
Nsa(dp534
g2
Nsg3
Nsg5
Nsg6
Nsg7
VSURAT PERJANJIAN KONTRAK (RUMAH SAHABAT AL-BAYYINAH)
p535
sg9
Nsg10
Nsg11
V161 / S.9 / YPM - 5000 / VI - 1439
p536
sg13
Nsg14
Nsg15
V17 Februari 2018
p537
sg17
Nsg18
Nsg19
Nsg20
I160
sg21
Nsa(dp538
g2
Nsg3
Nsg5
Nsg6
Nsg7
VSURAT PERMOHONAN PEMINJAMAN FASILITAS (TAMAN GANESHA)
p539
sg9
Nsg10
Nsg11
V162 / S.6 / YPM - 5500 / VI - 1439
p540
sg13
Nsg14
Nsg15
Nsg17
Nsg18
g205
sg19
Nsg20
I161
sg21
Nsa(dp541
g2
Nsg3
Nsg5
Nsg6
Nsg7
VPERMOHONAN KERJASAMA PELATIHAN PUBLIC SPEAKING
p542
sg9
Nsg10
Nsg11
V163 / S.6 / YPM - 2100 / VI - 1439
p543
sg13
Nsg14
Nsg15
Nsg17
Nsg18
VDJ ARIE SCHOOL
p544
sg19
Nsg20
I162
sg21
Nsa(dp545
g2
Nsg3
Nsg5
Nsg6
Nsg7
VPEMINJAMAN TEMPAT (MASJID MAAIM MASKUUB-PDAM)
p546
sg9
Nsg10
Nsg11
V164 / S.6 / YPM - 5000 / VI - 1439
p547
sg13
Nsg14
Nsg15
V19 Februari 2018
p548
sg17
Nsg18
VMASJID MAAIM MASKUUB-PDAM
p549
sg19
Nsg20
I163
sg21
Nsa(dp550
g2
Nsg3
Nsg5
Nsg6
Nsg7
VPENAGIHAN BIAYA PENERBITAN BUKU TRIALEKTIKA
p551
sg9
Nsg10
Nsg11
V165 / S.2 / YPM - 6000 / VI - 1439
p552
sg13
Nsg14
Nsg15
Nsg17
Nsg18
VPENERBIT PUSTAKA MATAHARI
p553
sg19
Nsg20
I164
sg21
Nsa(dp554
g2
Nsg3
Nsg5
Nsg6
Nsg7
VSURAT KONTRAK KERJA (INE UFIYATIPUTRI)
p555
sg9
Nsg10
Nsg11
V166 / S.9 / YPM - 6000 / VI - 1439
p556
sg13
Nsg14
Nsg15
Nsg17
Nsg18
Nsg19
Nsg20
I165
sg21
Nsa(dp557
g2
Nsg3
Nsg5
Nsg6
Nsg7
VEDARAN PEMBAYARAN BIAYA KEPESERTAAN
p558
sg9
Nsg10
Nsg11
V167 / S.3 / YPM - 4000 / VI - 1439
p559
sg13
Nsg14
Nsg15
V20 Februari 2018
p560
sg17
Nsg18
VPESERTA
p561
sg19
Nsg20
I166
sg21
Nsa(dp562
g2
Nsg3
Nsg5
Nsg6
Nsg7
g558
sg9
Nsg10
Nsg11
V168 / S.3 / YPM - 4000 / VI - 1439
p563
sg13
Nsg14
Nsg15
Nsg17
Nsg18
g561
sg19
Nsg20
I167
sg21
Nsa(dp564
g2
Nsg3
Nsg5
Nsg6
Nsg7
g558
sg9
Nsg10
Nsg11
V169 / S.3 / YPM - 4000 / VI - 1439
p565
sg13
Nsg14
Nsg15
Nsg17
Nsg18
g561
sg19
Nsg20
I168
sg21
Nsa(dp566
g2
Nsg3
VHKD
p567
sg5
Nsg6
Nsg7
VSURAT AUDIENSI TIM FUNDRAISING PEMBANGUNAN RS SH
p568
sg9
Nsg10
Nsg11
V170 / S.6 / YPM - C100 / VI - 1439
p569
sg13
Nsg14
Nsg15
Nsg17
Nsg18
VDIREKTUR RABBANI, GUBERNUR JABAR
p570
sg19
Nsg20
I169
sg21
Nsa(dp571
g2
Nsg3
Nsg5
Nsg6
Nsg7
VUNDANGAN SIDANG FATWA HALAL
p572
sg9
Nsg10
Nsg11
V171 / S.7 / YPM - B100 / VI - 1439
p573
sg13
Nsg14
Nsg15
Nsg17
Nsg18
VANGGOTA DEWAN SYARIAH PUSAT HALAL
p574
sg19
Nsg20
I170
sg21
Nsa(dp575
g2
Nsg3
Nsg5
Nsg6
Nsg7
VPERMOHONAN KEYNOTE SPEAKER
p576
sg9
Nsg10
Nsg11
V172 / S.6 / YPM - B100 / VI - 1439
p577
sg13
Nsg14
Nsg15
Nsg17
Nsg18
Nsg19
Nsg20
I171
sg21
Nsa(dp578
g2
Nsg3
Nsg5
Nsg6
Nsg7
g384
sg9
Nsg10
Nsg11
V173 / S.9 / YPM - 1000 / VI - 1439
p579
sg13
Nsg14
Nsg15
Nsg17
Nsg18
VPT SYERGIE INDO PRIMA
p580
sg19
Nsg20
I172
sg21
Nsa(dp581
g2
Nsg3
Nsg5
Nsg6
Nsg7
VSERTIFIKAT PENGHARGAAN NOBAR IQRO'
p582
sg9
Nsg10
Nsg11
V174 / S.4 / YPM - 6400 / VI - 1439
p583
sg13
Nsg14
Nsg15
Nsg17
Nsg18
VYBM PLN AREA BANDUNG
p584
sg19
Nsg20
I173
sg21
Nsa(dp585
g2
Nsg3
Nsg5
Nsg6
Nsg7
g582
sg9
Nsg10
Nsg11
V175 / S.4 / YPM - 6400 / VI - 1439
p586
sg13
Nsg14
Nsg15
Nsg17
Nsg18
VYBM PLN AREA PENGATUR DISTRIBUSI JAWA BARAT
p587
sg19
Nsg20
I174
sg21
Nsa(dp588
g2
Nsg3
Nsg5
Nsg6
Nsg7
g582
sg9
Nsg10
Nsg11
V176 / S.4 / YPM - 6400 / VI - 1439
p589
sg13
Nsg14
Nsg15
Nsg17
Nsg18
VYBM PLN KANTOR DISTRIBUSI JAWA BARAT
p590
sg19
Nsg20
I175
sg21
Nsa(dp591
g2
Nsg3
Nsg5
Nsg6
Nsg7
g582
sg9
Nsg10
Nsg11
V177 / S.4 / YPM - 6400 / VI - 1439
p592
sg13
Nsg14
Nsg15
Nsg17
Nsg18
VYBM PLN AREA SUMEDANG
p593
sg19
Nsg20
I176
sg21
Nsa(dp594
g2
Nsg3
Nsg5
Nsg6
Nsg7
g582
sg9
Nsg10
Nsg11
V178 / S.4 / YPM - 6400 / VI - 1439
p595
sg13
Nsg14
Nsg15
Nsg17
Nsg18
VYBM PLN AREA MAJALAYA
p596
sg19
Nsg20
I177
sg21
Nsa(dp597
g2
Nsg3
Nsg5
Nsg6
Nsg7
g582
sg9
Nsg10
Nsg11
V179 / S.4 / YPM - 6400 / VI - 1439
p598
sg13
Nsg14
Nsg15
Nsg17
Nsg18
VYBM PLN AREA PURWAKARTA
p599
sg19
Nsg20
I178
sg21
Nsa(dp600
g2
Nsg3
Nsg5
Nsg6
Nsg7
g582
sg9
Nsg10
Nsg11
V180 / S.4 / YPM - 6400 / VI - 1439
p601
sg13
Nsg14
Nsg15
Nsg17
Nsg18
VYBM PLN AREA TASIKMALAYA
p602
sg19
Nsg20
I179
sg21
Nsa(dp603
g2
Nsg3
Nsg5
Nsg6
Nsg7
g582
sg9
Nsg10
Nsg11
V181 / S.4 / YPM - 6400 / VI - 1439
p604
sg13
Nsg14
Nsg15
Nsg17
Nsg18
VYBM PLN AREA CIMAHI
p605
sg19
Nsg20
I180
sg21
Nsa(dp606
g2
Nsg3
Nsg5
Nsg6
Nsg7
g582
sg9
Nsg10
Nsg11
V182 / S.4 / YPM - 6400 / VI - 1439
p607
sg13
Nsg14
Nsg15
Nsg17
Nsg18
VYBM PLN AREA KARAWANG
p608
sg19
Nsg20
I181
sg21
Nsa(dp609
g2
Nsg3
Nsg5
Nsg6
Nsg7
g582
sg9
Nsg10
Nsg11
V183 / S.4 / YPM - 6400 / VI - 1439
p610
sg13
Nsg14
Nsg15
Nsg17
Nsg18
VYBM PLN AREA CIREBON
p611
sg19
Nsg20
I182
sg21
Nsa(dp612
g2
Nsg3
Nsg5
Nsg6
Nsg7
g582
sg9
Nsg10
Nsg11
V184 / S.4 / YPM - 6400 / VI - 1439
p613
sg13
Nsg14
Nsg15
Nsg17
Nsg18
VYBM PLN AREA GUNUNG PUTRI
p614
sg19
Nsg20
I183
sg21
Nsa(dp615
g2
Nsg3
Nsg5
Nsg6
Nsg7
g582
sg9
Nsg10
Nsg11
V185 / S.4 / YPM - 6400 / VI - 1439
p616
sg13
Nsg14
Nsg15
Nsg17
Nsg18
VYBM PLN AREA BEKASI
p617
sg19
Nsg20
I184
sg21
Nsa(dp618
g2
Nsg3
Nsg5
Nsg6
Nsg7
g582
sg9
Nsg10
Nsg11
V186 / S.4 / YPM - 6400 / VI - 1439
p619
sg13
Nsg14
Nsg15
Nsg17
Nsg18
VYBM PLN AREA CIANJUR
p620
sg19
Nsg20
I185
sg21
Nsa(dp621
g2
Nsg3
Nsg5
Nsg6
Nsg7
g582
sg9
Nsg10
Nsg11
V187 / S.4 / YPM - 6400 / VI - 1439
p622
sg13
Nsg14
Nsg15
Nsg17
Nsg18
VYBM PLN AREA GARUT
p623
sg19
Nsg20
I186
sg21
Nsa(dp624
g2
Nsg3
Nsg5
Nsg6
Nsg7
g582
sg9
Nsg10
Nsg11
V188 / S.4 / YPM - 6400 / VI - 1439
p625
sg13
Nsg14
Nsg15
Nsg17
Nsg18
VYBM PLN AREA BOGOR
p626
sg19
Nsg20
I187
sg21
Nsa(dp627
g2
Nsg3
Nsg5
Nsg6
Nsg7
g582
sg9
Nsg10
Nsg11
V189 / S.4 / YPM - 6400 / VI - 1439
p628
sg13
Nsg14
Nsg15
Nsg17
Nsg18
VYBM PLN AREA DEPOK
p629
sg19
Nsg20
I188
sg21
Nsa(dp630
g2
Nsg3
Nsg5
Nsg6
Nsg7
g582
sg9
Nsg10
Nsg11
V190 / S.4 / YPM - 6400 / VI - 1439
p631
sg13
Nsg14
Nsg15
Nsg17
Nsg18
VYBM PLN AREA SUKABUMI
p632
sg19
Nsg20
I189
sg21
Nsa(dp633
g2
Nsg3
Nsg5
Nsg6
Nsg7
VSURAT KONTRAK KERJA
p634
sg9
Nsg10
Nsg11
V191 / S.9 / YPM - 6000 / VI - 1439
p635
sg13
Nsg14
Nsg15
V22 Februari 2018
p636
sg17
Nsg18
Nsg19
Nsg20
I190
sg21
Nsa(dp637
g2
Nsg3
Nsg5
Nsg6
Nsg7
VSURAT EDARAN KEIKUTSERTAAN KEPANITIAAN TABLIGH AKBAR
p638
sg9
Nsg10
Nsg11
V192 / S.3 / YPM - 2100 / VI - 1439
p639
sg13
Nsg14
Nsg15
Nsg17
Nsg18
VUNIT
p640
sg19
Nsg20
I191
sg21
Nsa(dp641
g2
Nsg3
Nsg5
Nsg6
Nsg7
VSURAT IZIN TIDAK MENGIKUTI KEGIATAN BELAJAR
p642
sg9
Nsg10
Nsg11
V193 / S.14 / YPM - 5000 / VI - 1439
p643
sg13
Nsg14
Nsg15
Nsg17
Nsg18
Nsg19
Nsg20
I192
sg21
Nsa(dp644
g2
Nsg3
Nsg5
Nsg6
Nsg7
VSURAT PEMINJAMAN TEMPAT (MASJID MAAIM MASKUUB PDAM)
p645
sg9
Nsg10
Nsg11
V194 / S.6 / YPM - 5000 / VI - 1439
p646
sg13
Nsg14
Nsg15
Nsg17
Nsg18
VDKM MAAIM MASKUUB PDAM
p647
sg19
Nsg20
I193
sg21
Nsa(dp648
g2
Nsg3
g269
sg5
Nsg6
Nsg7
VUNDANGAN PRESENTASI BPRS AL SALAAM SALMAN
p649
sg9
Nsg10
Nsg11
V195 / S.7 / YPM - 0000 / VI - 1439
p650
sg13
Nsg14
Nsg15
V23 Februari 2018
p651
sg17
Nsg18
Nsg19
Nsg20
I194
sg21
Nsa(dp652
g2
Nsg3
Nsg5
Nsg6
Nsg7
VSERTIFIKAT LMD 191
p653
sg9
Nsg10
Nsg11
V196 / S.4 / YPM - 5000 / VI - 1439
p654
sg13
Nsg14
Nsg15
Nsg17
Nsg18
Nsg19
Nsg20
I195
sg21
Nsa(dp655
g2
Nsg3
Nsg5
Nsg6
Nsg7
VPENAWARAN KERJASAMA SPONSORSHIP
p656
sg9
Nsg10
Nsg11
V197 / S.6 / YPM - 2110 / VI - 1439
p657
sg13
Nsg14
Nsg15
V24 Februari 2018
p658
sg17
Nsg18
Nsg19
Nsg20
I196
sg21
Nsa(dp659
g2
Nsg3
Nsg5
Nsg6
Nsg7
VPERMOHONANPEMBICARA
p660
sg9
Nsg10
Nsg11
V198 / S.6 / YPM - 2110 / VI - 1439
p661
sg13
Nsg14
Nsg15
Nsg17
Nsg18
Nsg19
Nsg20
I197
sg21
Nsa(dp662
g2
Nsg3
Nsg5
Nsg6
Nsg7
VSERTIFIKAT WORKSHOP PEMBINAAN HALAL
p663
sg9
Nsg10
Nsg11
V199 / S.4 / YPM - B100 / VI - 1439
p664
sg13
Nsg14
Nsg15
V28 Februari 2018
p665
sg17
Nsg18
Nsg19
Nsg20
I198
sg21
Nsa(dp666
g2
Nsg3
Nsg5
Nsg6
Nsg7
VPERMOHONAN PEMASANGAN ACRYLIC WAKAF SALMAN
p667
sg9
Nsg10
Nsg11
V200 / S.6 / YPM - D101 / VI - 1439
p668
sg13
Nsg14
Nsg15
Nsg17
Nsg18
VOWNER KANTIN SALMAN
p669
sg19
Nsg20
I199
sg21
Nsa(dp670
g2
Nsg3
Nsg5
Nsg6
Nsg7
VSURAT PEMBARUAN KONTRAK
p671
sg9
Nsg10
Nsg11
V201 / S.2 / YPM - D101 / VI - 1439
p672
sg13
Nsg14
Nsg15
V02 Maret 2018
p673
sg17
Nsg18
VLPP
p674
sg19
Nsg20
I200
sg21
Nsa(dp675
g2
Nsg3
Nsg5
Nsg6
Nsg7
VSURAT EDARAN PEMAKAIAN IDENTITAS KARYAWAN (NAME TAG)
p676
sg9
Nsg10
Nsg11
V202 / S.3 / YPM - 2100 / VI - 1439
p677
sg13
Nsg14
Nsg15
Nsg17
Nsg18
VKARYAWAN
p678
sg19
Nsg20
I201
sg21
Nsa(dp679
g2
Nsg3
Nsg5
Nsg6
Nsg7
g539
sg9
Nsg10
Nsg11
V203 / S.6 / YPM - 5000 / VI - 1439
p680
sg13
Nsg14
Nsg15
V03 Maret 2018
p681
sg17
Nsg18
g205
sg19
Nsg20
I202
sg21
Nsa(dp682
g2
Nsg3
Nsg5
Nsg6
Nsg7
VEDARAN
p683
sg9
Nsg10
Nsg11
V204 / S.3 / YPM - D100 / VI - 1439
p684
sg13
Nsg14
Nsg15
V05 Maret 2018
p685
sg17
Nsg18
Nsg19
Nsg20
I203
sg21
Nsa(dp686
g2
Nsg3
Nsg5
Nsg6
Nsg7
g683
sg9
Nsg10
Nsg11
V205 / S.3 / YPM - D100 / VI - 1439
p687
sg13
Nsg14
Nsg15
Nsg17
Nsg18
Nsg19
Nsg20
I204
sg21
Nsa(dp688
g2
Nsg3
Nsg5
Nsg6
Nsg7
g683
sg9
Nsg10
Nsg11
V206 / S.3 / YPM - D100 / VI - 1439
p689
sg13
Nsg14
Nsg15
Nsg17
Nsg18
Nsg19
Nsg20
I205
sg21
Nsa(dp690
g2
Nsg3
Nsg5
Nsg6
Nsg7
VSURAT KUASA PENUTUPAN REKENING
p691
sg9
Nsg10
Nsg11
V207 / S.8 / YPM - 8000 / VI - 1439
p692
sg13
Nsg14
Nsg15
Nsg17
Nsg18
Nsg19
Nsg20
I206
sg21
Nsa(dp693
g2
Nsg3
Nsg5
Nsg6
Nsg7
VPENGANTAR DRAFT JADWAL CERANAH TARAWIH 1439 h /2018 M
p694
sg9
Nsg10
Nsg11
V208 / S.10 / YPM - 1000 / VI - 1439
p695
sg13
Nsg14
Nsg15
Nsg17
Nsg18
Nsg19
Nsg20
I207
sg21
Nsa(dp696
g2
Nsg3
Nsg5
Nsg6
Nsg7
VPERMOHONAN PELARIHAN SAFETY DRILL
p697
sg9
Nsg10
Nsg11
V209 / S.6 / YPM - D100 / VI - 1439
p698
sg13
Nsg14
Nsg15
Nsg17
Nsg18
VK3L ITB
p699
sg19
Nsg20
I208
sg21
Nsa(dp700
g2
Nsg3
Nsg5
Nsg6
Nsg7
VPERMOHONAN BANTUAN (FESTIVAL FILM IQRO' DI TOKYO)
p701
sg9
Nsg10
Nsg11
V210 / S.6 / YPM - 6300 / VI - 1439
p702
sg13
Nsg14
Nsg15
V06 Maret 2018
p703
sg17
Nsg18
VDOMPET DHUAFA REPUBLIKA
p704
sg19
Nsg20
I209
sg21
Nsa(dp705
g2
Nsg3
Nsg5
Nsg6
Nsg7
g701
sg9
Nsg10
Nsg11
V211 / S.6 / YPM - 6300 / VI - 1439
p706
sg13
Nsg14
Nsg15
Nsg17
Nsg18
VBAITUL MAAL HIDAYATULLAH
p707
sg19
Nsg20
I210
sg21
Nsa(dp708
g2
Nsg3
Nsg5
Nsg6
Nsg7
g701
sg9
Nsg10
Nsg11
V212 / S.6 / YPM - 6300 / VI - 1439
p709
sg13
Nsg14
Nsg15
Nsg17
Nsg18
VPT GARUDA INDONESIA
p710
sg19
Nsg20
I211
sg21
Nsa(dp711
g2
Nsg3
Nsg5
Nsg6
Nsg7
VSURAT KETERANGAN AKTIVIS
p712
sg9
Nsg10
Nsg11
V213 / S.4 / YPM - 5000 / VI - 1439
p713
sg13
Nsg14
Nsg15
Nsg17
Nsg18
VFERI AROSA
p714
sg19
Nsg20
I212
sg21
Nsa(dp715
g2
Nsg3
Nsg5
Nsg6
Nsg7
VSK PEMBIMBING IBADAH HAJI
p716
sg9
Nsg10
Nsg11
V214 / S.1 / YPM - 1000 / VI - 1439
p717
sg13
Nsg14
Nsg15
Nsg17
Nsg18
Nsg19
Nsg20
I213
sg21
Nsa(dp718
g2
Nsg3
Nsg5
Nsg6
Nsg7
VTANGGAPAN SEWA RUANG LT. 3 GSS
p719
sg9
Nsg10
Nsg11
V215 / S.16 / YPM - D100 / VI - 1439
p720
sg13
Nsg14
Nsg15
Nsg17
Nsg18
g580
sg19
Nsg20
I214
sg21
Nsa(dp721
g2
Nsg3
Nsg5
Nsg6
Nsg7
VSURAT KONTRAK KERJA (PROGRAM PENGELOLAAN MEDIA SALMAN)
p722
sg9
Nsg10
Nsg11
V216 / S.9 / YPM - 6000 / VI - 1439
p723
sg13
Nsg14
Nsg15
Nsg17
Nsg18
VBUSTOMI
p724
sg19
Nsg20
I215
sg21
Nsa(dp725
g2
Nsg3
Nsg5
Nsg6
Nsg7
VSURAT KONTRAK KERJA (KOORDINATOR HUMAS & PROTOKOLER)
p726
sg9
Nsg10
Nsg11
V217 / S.9 / YPM - 6000 / VI - 1439
p727
sg13
Nsg14
Nsg15
Nsg17
Nsg18
VLILI NURHAYATI
p728
sg19
Nsg20
I216
sg21
Nsa(dp729
g2
Nsg3
Nsg5
Nsg6
Nsg7
VSURAT KONTRAK KERJA (WEB MASTER)
p730
sg9
Nsg10
Nsg11
V218 / S.9 / YPM - 6000 / VI - 1439
p731
sg13
Nsg14
Nsg15
Nsg17
Nsg18
VWAHYU MUSQITA
p732
sg19
Nsg20
I217
sg21
Nsa(dp733
g2
Nsg3
Nsg5
Nsg6
Nsg7
VSURAT IZIN TDK MENGIKUTI KEGIATAN UNIT
p734
sg9
Nsg10
Nsg11
V219 / S.14 / YPM - 5000 / VI - 1439
p735
sg13
Nsg14
Nsg15
V07 Maret 2018
p736
sg17
Nsg18
Nsg19
Nsg20
I218
sg21
Nsa(dp737
g2
Nsg3
Nsg5
Nsg6
Nsg7
VPEMBERITAHUAN ACARA (RT)
p738
sg9
Nsg10
Nsg11
V220 / S.2 / YPM - 2100 / VI - 1439
p739
sg13
Nsg14
Nsg15
Nsg17
Nsg18
Nsg19
Nsg20
I219
sg21
Nsa(dp740
g2
Nsg3
Nsg5
Nsg6
Nsg7
VPEMBERITAHUAN ACARA (RW)
p741
sg9
Nsg10
Nsg11
V221 / S.2 / YPM - 2100 / VI - 1439
p742
sg13
Nsg14
Nsg15
Nsg17
Nsg18
Nsg19
Nsg20
I220
sg21
Nsa(dp743
g2
Nsg3
Nsg5
Nsg6
Nsg7
VPEMBERITAHUAN ACARA (POLRESTABES)
p744
sg9
Nsg10
Nsg11
V222 / S.2 / YPM - 2100 / VI - 1439
p745
sg13
Nsg14
Nsg15
Nsg17
Nsg18
Nsg19
Nsg20
I221
sg21
Nsa(dp746
g2
Nsg3
Nsg5
Nsg6
Nsg7
VPEMBERITAHUAN ACARA (POLSEK)
p747
sg9
Nsg10
Nsg11
V223 / S.2 / YPM - 2100 / VI - 1439
p748
sg13
Nsg14
Nsg15
Nsg17
Nsg18
Nsg19
Nsg20
I222
sg21
Nsa(dp749
g2
Nsg3
Nsg5
Nsg6
Nsg7
VPERMOHONAN PEMINJAMAN FASILITAS
p750
sg9
Nsg10
Nsg11
V224 / S.6 / YPM - 2100 / VI - 1439
p751
sg13
Nsg14
Nsg15
Nsg17
Nsg18
Nsg19
Nsg20
I223
sg21
Nsa(dp752
g2
Nsg3
Nsg5
Nsg6
Nsg7
VUNDANGAN PENGURUS
p753
sg9
Nsg10
Nsg11
V225 / S.7 / YPM - 2100 / VI - 1439
p754
sg13
Nsg14
Nsg15
Nsg17
Nsg18
Nsg19
Nsg20
I224
sg21
Nsa(dp755
g2
Nsg3
Nsg5
Nsg6
Nsg7
VUNDANGAN TAMU VIP
p756
sg9
Nsg10
Nsg11
V226 / S.7 / YPM - 2100 / VI - 1439
p757
sg13
Nsg14
Nsg15
Nsg17
Nsg18
Nsg19
Nsg20
I225
sg21
Nsa(dp758
g2
Nsg3
Nsg5
Nsg6
Nsg7
VPERMOHONAN KWH EKSPOR IMPOR
p759
sg9
Nsg10
Nsg11
V227 / S.6 / YPM - 2100 / VI - 1439
p760
sg13
Nsg14
Nsg15
V08 Maret 2018
p761
sg17
Nsg18
VPLN
p762
sg19
Nsg20
I226
sg21
Nsa(dp763
g2
Nsg3
Nsg5
Nsg6
Nsg7
VSURAT KETERANGAN AKTIVIS (RAKHMAWATI NABILA)
p764
sg9
Nsg10
Nsg11
V228 / S.4 / YPM - 5000 / VI - 1439
p765
sg13
Nsg14
Nsg15
Nsg17
Nsg18
Nsg19
Nsg20
I227
sg21
Nsa(dp766
g2
Nsg3
Nsg5
Nsg6
Nsg7
VSURAT KUASA PERMOHONAN PENGGANTIAN KWH-METER
p767
sg9
Nsg10
Nsg11
V229 / S.8 / YPM - 2100 / VI - 1439
p768
sg13
Nsg14
Nsg15
Nsg17
Nsg18
g762
sg19
Nsg20
I228
sg21
Nsa(dp769
g2
Nsg3
Nsg5
Nsg6
Nsg7
VSURAT PERMOHONAN NARASUMBER SYUKURAN WISUDA APRIL 2018
p770
sg9
Nsg10
Nsg11
V230 / S.6 / YPM - 5000 / VI - 1439
p771
sg13
Nsg14
Nsg15
V10 Maret 2018
p772
sg17
Nsg18
Nsg19
Nsg20
I229
sg21
Nsa(dp773
g2
Nsg3
Nsg5
Nsg6
Nsg7
g489
sg9
Nsg10
Nsg11
V231 / S.14 / YPM - 5000 / VI - 1439
p774
sg13
Nsg14
Nsg15
V13 Maret 2018
p775
sg17
Nsg18
Nsg19
Nsg20
I230
sg21
Nsa(dp776
g2
Nsg3
Nsg5
Nsg6
Nsg7
VSERTIFIKAT SSC 15
p777
sg9
Nsg10
Nsg11
V232 / S.4 / YPM - 5000 / VI - 1439
p778
sg13
Nsg14
Nsg15
Nsg17
Nsg18
Nsg19
Nsg20
I231
sg21
Nsa(dp779
g2
Nsg3
Nsg5
Nsg6
Nsg7
g235
sg9
Nsg10
Nsg11
V233 / S.6 / YPM - 1000 / VI - 1439
p780
sg13
Nsg14
Nsg15
V14 Maret 2018
p781
sg17
Nsg18
g26
sg19
Nsg20
I232
sg21
Nsa(dp782
g2
Nsg3
Nsg5
Nsg6
Nsg7
VUCAPAN TAZIAH (WIDI ISKANDAR)
p783
sg9
Nsg10
Nsg11
V234 / S.12 / YPM - 2100 / VI - 1439
p784
sg13
Nsg14
Nsg15
Nsg17
Nsg18
Nsg19
Nsg20
I233
sg21
Nsa(dp785
g2
Nsg3
Nsg5
Nsg6
Nsg7
VSURAT KETERANGAN AKTIVIS (MILLATUL KHASANAH)
p786
sg9
Nsg10
Nsg11
V235 / S.4 / YPM - 5000 / VI - 1439
p787
sg13
Nsg14
Nsg15
Nsg17
Nsg18
Nsg19
Nsg20
I234
sg21
Nsa(dp788
g2
Nsg3
Nsg5
Nsg6
Nsg7
g546
sg9
Nsg10
Nsg11
V236 / S.6 / YPM - 5000 / VI - 1439
p789
sg13
Nsg14
Nsg15
Nsg17
Nsg18
VDKM MASJID MAAIM MASKUUB
p790
sg19
Nsg20
I235
sg21
Nsa(dp791
g2
Nsg3
Nsg5
Nsg6
Nsg7
g546
sg9
Nsg10
Nsg11
V237 / S.6 / YPM - 5000 / VI - 1439
p792
sg13
Nsg14
Nsg15
V15 Maret 2018
p793
sg17
Nsg18
g790
sg19
Nsg20
I236
sg21
Nsa(dp794
g2
Nsg3
Nsg5
Nsg6
Nsg7
VPERMOHONAN SILATURAHMI TIM FILM IQRO'
p795
sg9
Nsg10
Nsg11
V238 / S.6 / YPM - 6300 / VI - 1439
p796
sg13
Nsg14
Nsg15
Nsg17
Nsg18
VATASE PENDIDIKAN KBRI JEPANG
p797
sg19
Nsg20
I237
sg21
Nsa(dp798
g2
Nsg3
Nsg5
Nsg6
Nsg7
VPERMOHONAN PEMBIAYAAN PRODUKSI FILM IQRO' 2
p799
sg9
Nsg10
Nsg11
V239 / S.6 / YPM - 6300 / VI - 1439
p800
sg13
Nsg14
Nsg15
Nsg17
Nsg18
Nsg19
Nsg20
I238
sg21
Nsa(dp801
g2
Nsg3
Nsg5
Nsg6
Nsg7
VSURAT KETERANGAN LOLOS BEASISWA PERINTIS 2.0
p802
sg9
Nsg10
Nsg11
V240 / S.4 / YPM - 5000 / VI - 1439
p803
sg13
Nsg14
Nsg15
V16 Maret 2018
p804
sg17
Nsg18
Nsg19
Nsg20
I239
sg21
Nsa(dp805
g2
Nsg3
Nsg5
Nsg6
Nsg7
VUNDANGAN SYUKURAN WISUDA
p806
sg9
Nsg10
Nsg11
V241 / S.7 / YPM - 5000 / VI - 1439
p807
sg13
Nsg14
Nsg15
Nsg17
Nsg18
Nsg19
Nsg20
I240
sg21
Nsa(dp808
g2
Nsg3
Nsg5
Nsg6
Nsg7
VPERMOHONAN MENJADI NARASUMBER
p809
sg9
Nsg10
Nsg11
V242 / S.6 / YPM - 4300 / VI - 1439
p810
sg13
Nsg14
Nsg15
V17 Maret 2018
p811
sg17
Nsg18
VUST. ADI HIDAYAT, LC., MA
p812
sg19
Nsg20
I241
sg21
Nsa(dp813
g2
Nsg3
Nsg5
Nsg6
Nsg7
VPERJANJIAN HUTANG (YPM - TAUFIK TIANTOSO)
p814
sg9
Nsg10
Nsg11
V243 / S.9 / YPM - 3000 / VI - 1439
p815
sg13
Nsg14
Nsg15
Nsg17
Nsg18
Nsg19
Nsg20
I242
sg21
Nsa(dp816
g2
Nsg3
Nsg5
Nsg6
Nsg7
VSERTIFIKAT TAHFIDZ
p817
sg9
Nsg10
Nsg11
V244 / S.4 / YPM - 4000 / VII - 1439
p818
sg13
Nsg14
Nsg15
V19 Maret 2018
p819
sg17
Nsg18
Nsg19
Nsg20
I243
sg21
Nsa(dp820
g2
Nsg3
Nsg5
Nsg6
Nsg7
VPERJANJIAN KONTRAK KERJA
p821
sg9
Nsg10
Nsg11
V245 / S.9 / YPM - 4000 / VII - 1439
p822
sg13
Nsg14
Nsg15
Nsg17
Nsg18
Nsg19
Nsg20
I244
sg21
Nsa(dp823
g2
Nsg3
Nsg5
Nsg6
Nsg7
g821
sg9
Nsg10
Nsg11
V246 / S.9 / YPM - 4000 / VII - 1439
p824
sg13
Nsg14
Nsg15
Nsg17
Nsg18
Nsg19
Nsg20
I245
sg21
Nsa(dp825
g2
Nsg3
Nsg5
Nsg6
Nsg7
g821
sg9
Nsg10
Nsg11
V247 / S.9 / YPM - 4000 / VII - 1439
p826
sg13
Nsg14
Nsg15
Nsg17
Nsg18
Nsg19
Nsg20
I246
sg21
Nsa(dp827
g2
Nsg3
Nsg5
Nsg6
Nsg7
VSK MITRA PENGADAAN PERALATAN DAN INSTALLASI SISTEM TATA SUARA
p828
sg9
Nsg10
Nsg11
V248 / S.1 / YPM - 1000 / VII - 1439
p829
sg13
Nsg14
Nsg15
Nsg17
Nsg18
Nsg19
Nsg20
I247
sg21
Nsa(dp830
g2
Nsg3
Nsg5
Nsg6
Nsg7
g217
sg9
Nsg10
Nsg11
V249 / S.6 / YPM - 5500 / VII - 1439
p831
sg13
Nsg14
Nsg15
Nsg17
Nsg18
g205
sg19
Nsg20
I248
sg21
Nsa(dp832
g2
Nsg3
Nsg5
Nsg6
Nsg7
VPEMINJAMAN FASILITAS (GKU TIMUR 9231 & MULTIPURPOSE H CRCS LT 3)
p833
sg9
Nsg10
Nsg11
V250 / S.6 / YPM - 5400 / VII - 1439
p834
sg13
Nsg14
Nsg15
V20 Maret 2018
p835
sg17
Nsg18
Nsg19
Nsg20
I249
sg21
Nsa(dp836
g2
Nsg3
g23
sg5
Nsg6
Nsg7
VSURAT TUGAS (UNDANGAN SEMINAR NASIONAL & GRAND LAUNCHING HALAL CENTER UNAIR)
p837
sg9
Nsg10
Nsg11
V251 / S.11 / YPM - B100 / VII - 1439
p838
sg13
Nsg14
Nsg15
Nsg17
Nsg18
Nsg19
Nsg20
I250
sg21
Nsa(dp839
g2
Nsg3
Nsg5
Nsg6
Nsg7
VSURAT PEMINJAMAN TEMPAT (YPI NURUZZAMAN)
p840
sg9
Nsg10
Nsg11
V252 / S.6 / YPM - 5000 / VII - 1439
p841
sg13
Nsg14
Nsg15
Nsg17
Nsg18
VYPI NURUZZAMAN
p842
sg19
Nsg20
I251
sg21
Nsa(dp843
g2
Nsg3
Nsg5
Nsg6
Nsg7
VUNDANGAN REKTOR (KAJIAN UAS)
p844
sg9
Nsg10
Nsg11
V253 / S.7 / YPM - 1000 / VII - 1439
p845
sg13
Nsg14
Nsg15
Nsg17
Nsg18
VREKTOR ITB
p846
sg19
Nsg20
I252
sg21
Nsa(dp847
g2
Nsg3
Nsg5
Nsg6
Nsg7
VSE KAJIAN UAS
p848
sg9
Nsg10
Nsg11
V254 / S.3 / YPM - 2100 / VII - 1439
p849
sg13
Nsg14
Nsg15
Nsg17
Nsg18
VBIDANG / LEMBAGA YPM SALMAN ITB
p850
sg19
Nsg20
I253
sg21
Nsa(dp851
g2
Nsg3
Nsg5
Nsg6
Nsg7
VSURAT PEMBERITAHUAN KEPUTUSAN VENDOR SOUND SYSTEM
p852
sg9
Nsg10
Nsg11
V255 / S.2 / YPM - D100 / VII - 1439
p853
sg13
Nsg14
Nsg15
Nsg17
Nsg18
VPT. ELSISCOM PRIMA KARYA
p854
sg19
Nsg20
I254
sg21
Nsa(dp855
g2
Nsg3
Nsg5
Nsg6
Nsg7
VSURAT REKOMENDASI (KASATLANTAS)
p856
sg9
Nsg10
Nsg11
V256 / S.5 / YPM - 2100 / VII - 1439
p857
sg13
Nsg14
Nsg15
Nsg17
Nsg18
Nsg19
Nsg20
I255
sg21
Nsa(dp858
g2
Nsg3
Nsg5
Nsg6
Nsg7
VSURAT REKOMENDASI (DEPAG)
p859
sg9
Nsg10
Nsg11
V257 / S.5 / YPM - 2100 / VII - 1439
p860
sg13
Nsg14
Nsg15
Nsg17
Nsg18
Nsg19
Nsg20
I256
sg21
Nsa(dp861
g2
Nsg3
VSLAMET IBRAHIM
p862
sg5
Nsg6
Nsg7
g837
sg9
Nsg10
Nsg11
V258 / S.11 / YPM - B100 / VII - 1439
p863
sg13
Nsg14
Nsg15
V21 Maret 2018
p864
sg17
Nsg18
Nsg19
Nsg20
I257
sg21
Nsa(dp865
g2
Nsg3
Nsg5
Nsg6
Nsg7
VSURAT PERNYATAAN KEGIATAN UAS
p866
sg9
Nsg10
Nsg11
V259 / S.4 / YPM - 2100 / VII - 1439
p867
sg13
Nsg14
Nsg15
Nsg17
Nsg18
Nsg19
Nsg20
I258
sg21
Nsa(dp868
g2
Nsg3
Nsg5
Nsg6
Nsg7
VSURAT PERNYATAAN PERSETUJUAN
p869
sg9
Nsg10
Nsg11
V260 / S.4 / YPM - 0000 / VII - 1439
p870
sg13
Nsg14
Nsg15
Nsg17
Nsg18
Nsg19
Nsg20
I259
sg21
Nsa(dp871
g2
Nsg3
Nsg5
Nsg6
Nsg7
VSURAT PERJANJIAN KERJA
p872
sg9
Nsg10
Nsg11
V261 / S.9 / YPM - 4000 / VII - 1439
p873
sg13
Nsg14
Nsg15
V22 Maret 2018
p874
sg17
Nsg18
Nsg19
Nsg20
I260
sg21
Nsa(dp875
g2
Nsg3
Nsg5
Nsg6
Nsg7
VSURAT PERMOHONAN PENGADAAN BARANG
p876
sg9
Nsg10
Nsg11
V262 / S.6 / YPM - 2100 / VII - 1439
p877
sg13
Nsg14
Nsg15
Nsg17
Nsg18
Nsg19
Nsg20
I261
sg21
Nsa(dp878
g2
Nsg3
Nsg5
Nsg6
Nsg7
VSURAT PERMOHONAN PEMINJAMAN LAHAN
p879
sg9
Nsg10
Nsg11
V263 / S.6 / YPM - 2100 / VII - 1439
p880
sg13
Nsg14
Nsg15
Nsg17
Nsg18
Nsg19
Nsg20
I262
sg21
Nsa(dp881
g2
Nsg3
Nsg5
Nsg6
Nsg7
VSURAT UNDANGAN REKTOR, DOSEN, PEMBINA (KAJIAN UAS)
p882
sg9
Nsg10
Nsg11
V264 / S.7 / YPM - 1000 / VII - 1439
p883
sg13
Nsg14
Nsg15
Nsg17
Nsg18
Nsg19
Nsg20
I263
sg21
Nsa(dp884
g2
Nsg3
Nsg5
Nsg6
Nsg7
VSURAT UNDANGAN VIP
p885
sg9
Nsg10
Nsg11
V265 / S.7 / YPM - 1000 / VII - 1439
p886
sg13
Nsg14
Nsg15
Nsg17
Nsg18
g264
sg19
Nsg20
I264
sg21
Nsa(dp887
g2
Nsg3
Nsg5
Nsg6
Nsg7
g885
sg9
Nsg10
Nsg11
V266 / S.7 / YPM - 1000 / VII - 1439
p888
sg13
Nsg14
Nsg15
Nsg17
Nsg18
VWAKIL GUBERNUR JABAR
p889
sg19
Nsg20
I265
sg21
Nsa(dp890
g2
Nsg3
Nsg5
Nsg6
Nsg7
VSURAT UNDANGAN
p891
sg9
Nsg10
Nsg11
V267 / S.7 / YPM - 2100 / VII - 1439
p892
sg13
Nsg14
Nsg15
Nsg17
Nsg18
VPEMBINA, PENGAWAS, PENGURUS SALMAN
p893
sg19
Nsg20
I266
sg21
Nsa(dp894
g2
Nsg3
Nsg5
Nsg6
Nsg7
VSURAT PERMOHONAN
p895
sg9
Nsg10
Nsg11
V268 / S.6 / YPM - 2100 / VII - 1439
p896
sg13
Nsg14
Nsg15
V23 Maret 2018
p897
sg17
Nsg18
VSARPRAS ITB
p898
sg19
Nsg20
I267
sg21
Nsa(dp899
g2
Nsg3
Nsg5
Nsg6
Nsg7
VPERMOHONAN SURAT REKOMENDASI
p900
sg9
Nsg10
Nsg11
V269 / S.6 / YPM - 5000 / VII - 1439
p901
sg13
Nsg14
Nsg15
Nsg17
Nsg18
Nsg19
Nsg20
I268
sg21
Nsa(dp902
g2
Nsg3
Nsg5
Nsg6
Nsg7
VSE POTONGAN GAJI BULAN MARET 2018
p903
sg9
Nsg10
Nsg11
V270 / S.3 / YPM - D101 / VII - 1439
p904
sg13
Nsg14
Nsg15
V24 Maret 2018
p905
sg17
Nsg18
g678
sg19
Nsg20
I269
sg21
Nsa(dp906
g2
Nsg3
Nsg5
Nsg6
Nsg7
VPERMOHONAN AKSES JALAN
p907
sg9
Nsg10
Nsg11
V271 / S.3 / YPM - D101 / VII - 1439
p908
sg13
Nsg14
Nsg15
Nsg17
Nsg18
VKETUA RW PERUMAHAN GENDING MAS UJUNG BERUNG
p909
sg19
Nsg20
I270
sg21
Nsa(dp910
g2
Nsg3
Nsg5
Nsg6
Nsg7
VSE FAMILI GAHTERING 2018
p911
sg9
Nsg10
Nsg11
V272 / S.3 / YPM - D101 / VII - 1439
p912
sg13
Nsg14
Nsg15
Nsg17
Nsg18
g678
sg19
Nsg20
I271
sg21
Nsa(dp913
g2
Nsg3
Nsg5
Nsg6
Nsg7
VPERJANJIAN PENGADAAN DAN INSTALASI SISTEM TATA SUARA TAHAP 1
p914
sg9
Nsg10
Nsg11
V273 / S.9 / YPM - 1000 / VII - 1439
p915
sg13
Nsg14
Nsg15
Nsg17
Nsg18
Nsg19
Nsg20
I272
sg21
Nsa(dp916
g2
Nsg3
Nsg5
Nsg6
Nsg7
g907
sg9
Nsg10
Nsg11
V274 / S.3 / YPM - D101 / VII - 1439
p917
sg13
Nsg14
Nsg15
Nsg17
Nsg18
VDEVELOPER PERUMAHAN GENDING MAS UJUNG BERUNG
p918
sg19
Nsg20
I273
sg21
Nsa(dp919
g2
Nsg3
Nsg5
Nsg6
Nsg7
VUNDANGAN UNIVERSITAS
p920
sg9
Nsg10
Nsg11
V275 / S.7 / YPM - 5000 / VII - 1439
p921
sg13
Nsg14
Nsg15
Nsg17
Nsg18
Nsg19
Nsg20
I274
sg21
Nsa(dp922
g2
Nsg3
Nsg5
Nsg6
Nsg7
VPERMOHONAN PEMINJAMAN TEMPAT (PUSDIKIF)
p923
sg9
Nsg10
Nsg11
V276 / S.6 / YPM - 7000 / VII - 1439
p924
sg13
Nsg14
Nsg15
V26 Maret 2018
p925
sg17
Nsg18
Nsg19
Nsg20
I275
sg21
Nsa(dp926
g2
Nsg3
Nsg5
Nsg6
Nsg7
VPEMBERITAHUAN KEGIATAN KAJIAN UAS
p927
sg9
Nsg10
Nsg11
V277 / S.2 / YPM - 2100 / VII - 1439
p928
sg13
Nsg14
Nsg15
Nsg17
Nsg18
VDANRAMIL KOTA BANDUNG
p929
sg19
Nsg20
I276
sg21
Nsa(dp930
g2
Nsg3
Nsg5
Nsg6
Nsg7
VUNDANGAN KEGIATAN KAJIAN UAS
p931
sg9
Nsg10
Nsg11
V278 / S.7 / YPM - 1000 / VII - 1439
p932
sg13
Nsg14
Nsg15
Nsg17
Nsg18
VPEMBINA & PENGURUS
p933
sg19
Nsg20
I277
sg21
Nsa(dp934
g2
Nsg3
Nsg5
Nsg6
Nsg7
g931
sg9
Nsg10
Nsg11
V279 / S.7 / YPM - 1000 / VII - 1439
p935
sg13
Nsg14
Nsg15
Nsg17
Nsg18
VKETUA MUI KOTA BANDUNG
p936
sg19
Nsg20
I278
sg21
Nsa(dp937
g2
Nsg3
Nsg5
Nsg6
Nsg7
g927
sg9
Nsg10
Nsg11
V280 / S.2 / YPM - 1000 / VII - 1439
p938
sg13
Nsg14
Nsg15
Nsg17
Nsg18
VKASAT INTELKAM POLRESTABES BANDUNG
p939
sg19
Nsg20
I279
sg21
Nsa(dp940
g2
Nsg3
Nsg5
Nsg6
Nsg7
g927
sg9
Nsg10
Nsg11
V281 / S.2 / YPM - 2100 / VII - 1439
p941
sg13
Nsg14
Nsg15
Nsg17
Nsg18
VWARGA RW 04 LBK SILIWANGI
p942
sg19
Nsg20
I280
sg21
Nsa(dp943
g2
Nsg3
Nsg5
Nsg6
Nsg7
VPUBLIKASI KAJIAN UAS
p944
sg9
Nsg10
Nsg11
V282 / S.2 / YPM - 2100 / VII - 1439
p945
sg13
Nsg14
Nsg15
Nsg17
Nsg18
Nsg19
Nsg20
I281
sg21
Nsa(dp946
g2
Nsg3
Nsg5
Nsg6
Nsg7
g944
sg9
Nsg10
Nsg11
V283 / S.2 / YPM - 2100 / VII - 1439
p947
sg13
Nsg14
Nsg15
Nsg17
Nsg18
Nsg19
Nsg20
I282
sg21
Nsa(dp948
g2
Nsg3
Nsg5
Nsg6
Nsg7
g944
sg9
Nsg10
Nsg11
V284 / S.2 / YPM - 2100 / VII - 1439
p949
sg13
Nsg14
Nsg15
Nsg17
Nsg18
Nsg19
Nsg20
I283
sg21
Nsa(dp950
g2
Nsg3
Nsg5
Nsg6
Nsg7
g944
sg9
Nsg10
Nsg11
V285 / S.2 / YPM - 2100 / VII - 1439
p951
sg13
Nsg14
Nsg15
Nsg17
Nsg18
Nsg19
Nsg20
I284
sg21
Nsa(dp952
g2
Nsg3
Nsg5
Nsg6
Nsg7
g944
sg9
Nsg10
Nsg11
V286 / S.2 / YPM - 2100 / VII - 1439
p953
sg13
Nsg14
Nsg15
Nsg17
Nsg18
Nsg19
Nsg20
I285
sg21
Nsa(dp954
g2
Nsg3
Nsg5
Nsg6
Nsg7
g944
sg9
Nsg10
Nsg11
V287 / S.2 / YPM - 2100 / VII - 1439
p955
sg13
Nsg14
Nsg15
Nsg17
Nsg18
Nsg19
Nsg20
I286
sg21
Nsa(dp956
g2
Nsg3
Nsg5
Nsg6
Nsg7
g944
sg9
Nsg10
Nsg11
V288 / S.2 / YPM - 2100 / VII - 1439
p957
sg13
Nsg14
Nsg15
Nsg17
Nsg18
Nsg19
Nsg20
I287
sg21
Nsa(dp958
g2
Nsg3
Nsg5
Nsg6
Nsg7
g944
sg9
Nsg10
Nsg11
V289 / S.2 / YPM - 2100 / VII - 1439
p959
sg13
Nsg14
Nsg15
Nsg17
Nsg18
Nsg19
Nsg20
I288
sg21
Nsa(dp960
g2
Nsg3
Nsg5
Nsg6
Nsg7
g944
sg9
Nsg10
Nsg11
V290 / S.2 / YPM - 2100 / VII - 1439
p961
sg13
Nsg14
Nsg15
Nsg17
Nsg18
Nsg19
Nsg20
I289
sg21
Nsa(dp962
g2
Nsg3
Nsg5
Nsg6
Nsg7
g944
sg9
Nsg10
Nsg11
V291 / S.2 / YPM - 2100 / VII - 1439
p963
sg13
Nsg14
Nsg15
Nsg17
Nsg18
Nsg19
Nsg20
I290
sg21
Nsa(dp964
g2
Nsg3
Nsg5
Nsg6
Nsg7
g944
sg9
Nsg10
Nsg11
V292 / S.2 / YPM - 2100 / VII - 1439
p965
sg13
Nsg14
Nsg15
Nsg17
Nsg18
Nsg19
Nsg20
I291
sg21
Nsa(dp966
g2
Nsg3
Nsg5
Nsg6
Nsg7
g944
sg9
Nsg10
Nsg11
V293 / S.2 / YPM - 2100 / VII - 1439
p967
sg13
Nsg14
Nsg15
Nsg17
Nsg18
Nsg19
Nsg20
I292
sg21
Nsa(dp968
g2
Nsg3
Nsg5
Nsg6
Nsg7
g944
sg9
Nsg10
Nsg11
V294 / S.2 / YPM - 2100 / VII - 1439
p969
sg13
Nsg14
Nsg15
Nsg17
Nsg18
Nsg19
Nsg20
I293
sg21
Nsa(dp970
g2
Nsg3
Nsg5
Nsg6
Nsg7
g944
sg9
Nsg10
Nsg11
V295 / S.2 / YPM - 2100 / VII - 1439
p971
sg13
Nsg14
Nsg15
Nsg17
Nsg18
Nsg19
Nsg20
I294
sg21
Nsa(dp972
g2
Nsg3
Nsg5
Nsg6
Nsg7
g944
sg9
Nsg10
Nsg11
V296 / S.2 / YPM - 2100 / VII - 1439
p973
sg13
Nsg14
Nsg15
Nsg17
Nsg18
Nsg19
Nsg20
I295
sg21
Nsa(dp974
g2
Nsg3
Nsg5
Nsg6
Nsg7
g944
sg9
Nsg10
Nsg11
V297 / S.2 / YPM - 2100 / VII - 1439
p975
sg13
Nsg14
Nsg15
Nsg17
Nsg18
Nsg19
Nsg20
I296
sg21
Nsa(dp976
g2
Nsg3
Nsg5
Nsg6
Nsg7
g944
sg9
Nsg10
Nsg11
V298 / S.2 / YPM - 2100 / VII - 1439
p977
sg13
Nsg14
Nsg15
Nsg17
Nsg18
Nsg19
Nsg20
I297
sg21
Nsa(dp978
g2
Nsg3
Nsg5
Nsg6
Nsg7
g944
sg9
Nsg10
Nsg11
V299 / S.2 / YPM - 2100 / VII - 1439
p979
sg13
Nsg14
Nsg15
Nsg17
Nsg18
Nsg19
Nsg20
I298
sg21
Nsa(dp980
g2
Nsg3
Nsg5
Nsg6
Nsg7
g944
sg9
Nsg10
Nsg11
V300 / S.2 / YPM - 2100 / VII - 1439
p981
sg13
Nsg14
Nsg15
Nsg17
Nsg18
Nsg19
Nsg20
I299
sg21
Nsa(dp982
g2
Nsg3
Nsg5
Nsg6
Nsg7
g944
sg9
Nsg10
Nsg11
V301 / S.2 / YPM - 2100 / VII - 1439
p983
sg13
Nsg14
Nsg15
Nsg17
Nsg18
Nsg19
Nsg20
I300
sg21
Nsa(dp984
g2
Nsg3
Nsg5
Nsg6
Nsg7
VUNDANGAN
p985
sg9
Nsg10
Nsg11
V302 / S.7 / YPM - 2100 / VII - 1439
p986
sg13
Nsg14
Nsg15
Nsg17
Nsg18
Nsg19
Nsg20
I301
sg21
Nsa(dp987
g2
Nsg3
Nsg5
Nsg6
Nsg7
VPERJANJIAN KERJASAMA LPH DENGAN LPPM ITB
p988
sg9
Nsg10
Nsg11
V303 / S.9 / YPM - 1000 / VII - 1439
p989
sg13
Nsg14
Nsg15
Nsg17
Nsg18
Nsg19
Nsg20
I302
sg21
Nsa(dp990
g2
Nsg3
Nsg5
Nsg6
Nsg7
VSURAT PERJANJIAN SEWA MENYEWA (ELEKTRONIKA UTAMA - EU)
p991
sg9
Nsg10
Nsg11
V304 / S.9 / YPM - 1000 / VII - 1439
p992
sg13
Nsg14
Nsg15
Nsg17
Nsg18
Nsg19
Nsg20
I303
sg21
Nsa(dp993
g2
Nsg3
Nsg5
Nsg6
Nsg7
VUNDANGAN (KAJIAN UAS)
p994
sg9
Nsg10
Nsg11
V305 / S.7 / YPM - 2100 / VII - 1439
p995
sg13
Nsg14
Nsg15
Nsg17
Nsg18
Nsg19
Nsg20
I304
sg21
Nsa(dp996
g2
Nsg3
Nsg5
Nsg6
Nsg7
g994
sg9
Nsg10
Nsg11
V306 / S.7 / YPM - 1000 / VII - 1439
p997
sg13
Nsg14
Nsg15
Nsg17
Nsg18
VDEKAN FITB ITB
p998
sg19
Nsg20
I305
sg21
Nsa(dp999
g2
Nsg3
Nsg5
Nsg6
Nsg7
g994
sg9
Nsg10
Nsg11
V307 / S.7 / YPM - 1000 / VII - 1439
p1000
sg13
Nsg14
Nsg15
Nsg17
Nsg18
VDEKAN FSRD ITB
p1001
sg19
Nsg20
I306
sg21
Nsa(dp1002
g2
Nsg3
Nsg5
Nsg6
Nsg7
g994
sg9
Nsg10
Nsg11
V308 / S.7 / YPM - 1000 / VII - 1439
p1003
sg13
Nsg14
Nsg15
Nsg17
Nsg18
VDEKAN FMIPA ITB
p1004
sg19
Nsg20
I307
sg21
Nsa(dp1005
g2
Nsg3
Nsg5
Nsg6
Nsg7
g994
sg9
Nsg10
Nsg11
V309 / S.7 / YPM - 1000 / VII - 1439
p1006
sg13
Nsg14
Nsg15
Nsg17
Nsg18
VDEKAN FTI ITB
p1007
sg19
Nsg20
I308
sg21
Nsa(dp1008
g2
Nsg3
Nsg5
Nsg6
Nsg7
g994
sg9
Nsg10
Nsg11
V310 / S.7 / YPM - 1000 / VII - 1439
p1009
sg13
Nsg14
Nsg15
Nsg17
Nsg18
VDEKAN FTMD ITB
p1010
sg19
Nsg20
I309
sg21
Nsa(dp1011
g2
Nsg3
Nsg5
Nsg6
Nsg7
g994
sg9
Nsg10
Nsg11
V311 / S.7 / YPM - 1000 / VII - 1439
p1012
sg13
Nsg14
Nsg15
Nsg17
Nsg18
VDEKAN FTSL ITB
p1013
sg19
Nsg20
I310
sg21
Nsa(dp1014
g2
Nsg3
Nsg5
Nsg6
Nsg7
g994
sg9
Nsg10
Nsg11
V312 / S.7 / YPM - 1000 / VII - 1439
p1015
sg13
Nsg14
Nsg15
Nsg17
Nsg18
VDEKAN FTTM ITB
p1016
sg19
Nsg20
I311
sg21
Nsa(dp1017
g2
Nsg3
Nsg5
Nsg6
Nsg7
g994
sg9
Nsg10
Nsg11
V313 / S.7 / YPM - 1000 / VII - 1439
p1018
sg13
Nsg14
Nsg15
Nsg17
Nsg18
VDEKAN SAPPK ITB
p1019
sg19
Nsg20
I312
sg21
Nsa(dp1020
g2
Nsg3
Nsg5
Nsg6
Nsg7
g994
sg9
Nsg10
Nsg11
V314 / S.7 / YPM - 1000 / VII - 1439
p1021
sg13
Nsg14
Nsg15
Nsg17
Nsg18
VDEKAN SF ITB
p1022
sg19
Nsg20
I313
sg21
Nsa(dp1023
g2
Nsg3
Nsg5
Nsg6
Nsg7
g994
sg9
Nsg10
Nsg11
V315 / S.7 / YPM - 1000 / VII - 1439
p1024
sg13
Nsg14
Nsg15
Nsg17
Nsg18
VDEKAN SBM ITB
p1025
sg19
Nsg20
I314
sg21
Nsa(dp1026
g2
Nsg3
Nsg5
Nsg6
Nsg7
g994
sg9
Nsg10
Nsg11
V316 / S.7 / YPM - 1000 / VII - 1439
p1027
sg13
Nsg14
Nsg15
Nsg17
Nsg18
VDEKAN STEI ITB
p1028
sg19
Nsg20
I315
sg21
Nsa(dp1029
g2
Nsg3
Nsg5
Nsg6
Nsg7
g994
sg9
Nsg10
Nsg11
V317 / S.7 / YPM - 1000 / VII - 1439
p1030
sg13
Nsg14
Nsg15
Nsg17
Nsg18
VDEKAN SITH ITB
p1031
sg19
Nsg20
I316
sg21
Nsa(dp1032
g2
Nsg3
Nsg5
Nsg6
Nsg7
VUNDANGAN VIP (KAJIAN UAS)
p1033
sg9
Nsg10
Nsg11
V318 / S.7 / YPM - 1000 / VII - 1439
p1034
sg13
Nsg14
Nsg15
Nsg17
Nsg18
VFENY MUSTAFA
p1035
sg19
Nsg20
I317
sg21
Nsa(dp1036
g2
Nsg3
Nsg5
Nsg6
Nsg7
VSURAT KETERANGAN IKRAR ISLAM
p1037
sg9
Nsg10
Nsg11
V319 / S.4 / YPM - 4000 / VII - 1439
p1038
sg13
Nsg14
Nsg15
Nsg17
Nsg18
VALBERT M. AYALA
p1039
sg19
Nsg20
I318
sg21
Nsa(dp1040
g2
Nsg3
Nsg5
Nsg6
Nsg7
g994
sg9
Nsg10
Nsg11
V320 / S.7 / YPM - 1000 / VII - 1439
p1041
sg13
Nsg14
Nsg15
Nsg17
Nsg18
VFRONT PEMBELA ISLAM
p1042
sg19
Nsg20
I319
sg21
Nsa(dp1043
g2
Nsg3
Nsg5
Nsg6
Nsg7
g994
sg9
Nsg10
Nsg11
V321 / S.7 / YPM - 1000 / VII - 1439
p1044
sg13
Nsg14
Nsg15
Nsg17
Nsg18
VBRIGADE PERSIS
p1045
sg19
Nsg20
I320
sg21
Nsa(dp1046
g2
Nsg3
Nsg5
Nsg6
Nsg7
VPERMOHONAN FASILITAS PENGAMANAN (KAJIAN UAS)
p1047
sg9
Nsg10
Nsg11
V322 / S.6 / YPM - 2100 / VII - 1439
p1048
sg13
Nsg14
Nsg15
V28 Maret 2018
p1049
sg17
Nsg18
VPOLRETABES BANDUNG
p1050
sg19
Nsg20
I321
sg21
Nsa(dp1051
g2
Nsg3
Nsg5
Nsg6
Nsg7
VSURAT TUGAS (WORKSHOP, EVALUASI, KOORDINASI PPL KEPUSTAKAAN MAHASISWA PRODI PERPUSTAKAAN DAN ILMU INFORMASI FIP UPI)
p1052
sg9
Nsg10
Nsg11
V323 / S.11 / YPM - 6000 / VII - 1439
p1053
sg13
Nsg14
Nsg15
Nsg17
Nsg18
VUPI
p1054
sg19
Nsg20
I322
sg21
Nsa(dp1055
g2
Nsg3
Nsg5
Nsg6
Nsg7
VPEMBERITAHUAN KAJIAN UAS
p1056
sg9
Nsg10
Nsg11
V324 / S.2 / YPM - 6000 / VII - 1439
p1057
sg13
Nsg14
Nsg15
Nsg17
Nsg18
Nsg19
Nsg20
I323
sg21
Nsa(dp1058
g2
Nsg3
Nsg5
Nsg6
Nsg7
VSURAT IZIN
p1059
sg9
Nsg10
Nsg11
V325 / S.14 / YPM - 5000 / VII - 1439
p1060
sg13
Nsg14
Nsg15
Nsg17
Nsg18
Nsg19
Nsg20
I324
sg21
Nsa(dp1061
g2
Nsg3
Nsg5
Nsg6
Nsg7
g1059
sg9
Nsg10
Nsg11
V326 / S.14 / YPM - 5000 / VII - 1439
p1062
sg13
Nsg14
Nsg15
Nsg17
Nsg18
Nsg19
Nsg20
I325
sg21
Nsa(dp1063
g2
Nsg3
Nsg5
Nsg6
Nsg7
g1059
sg9
Nsg10
Nsg11
V327 / S.14 / YPM - 5000 / VII - 1439
p1064
sg13
Nsg14
Nsg15
Nsg17
Nsg18
Nsg19
Nsg20
I326
sg21
Nsa(dp1065
g2
Nsg3
Nsg5
Nsg6
Nsg7
VPERMOHONAN IZIN KERAMAIAN KAJIAN UAS
p1066
sg9
Nsg10
Nsg11
V328 / S.6 / YPM - 1000 / VII - 1439
p1067
sg13
Nsg14
Nsg15
Nsg17
Nsg18
VKAPOLDA
p1068
sg19
Nsg20
I327
sg21
Nsa(dp1069
g2
Nsg3
Nsg5
Nsg6
Nsg7
VPERMOHONAN IJIN KEGIATAN TABLIGH AKBAR (PENUTUPAN JALAN)
p1070
sg9
Nsg10
Nsg11
V329 / S.6 / YPM - 2100 / VII - 1439
p1071
sg13
Nsg14
Nsg15
V29 Maret 2018
p1072
sg17
Nsg18
VUPT K3L ITB
p1073
sg19
Nsg20
I328
sg21
Nsa(dp1074
g2
Nsg3
Nsg5
Nsg6
Nsg7
VPERMOHONAN BANTUAN AMBULAN
p1075
sg9
Nsg10
Nsg11
V330 / S.6 / YPM - 2100 / VII - 1439
p1076
sg13
Nsg14
Nsg15
Nsg17
Nsg18
g1073
sg19
Nsg20
I329
sg21
Nsa(dp1077
g2
Nsg3
Nsg5
Nsg6
Nsg7
Nsg9
Nsg10
Nsg11
V331 / S.6 / YPM - 2100 / VII - 1439
p1078
sg13
Nsg14
Nsg15
Nsg17
Nsg18
Nsg19
Nsg20
I330
sg21
Nsa(dp1079
g2
Nsg3
Nsg5
Nsg6
Nsg7
Nsg9
Nsg10
Nsg11
V332 / S.6 / YPM - 2100 / VII - 1439
p1080
sg13
Nsg14
Nsg15
Nsg17
Nsg18
Nsg19
Nsg20
I331
sg21
Nsa(dp1081
g2
Nsg3
Nsg5
Nsg6
Nsg7
Nsg9
Nsg10
Nsg11
V333 / S.6 / YPM - 2100 / VII - 1439
p1082
sg13
Nsg14
Nsg15
Nsg17
Nsg18
Nsg19
Nsg20
I332
sg21
Nsa(dp1083
g2
Nsg3
Nsg5
Nsg6
Nsg7
VSURAT INFORMASI KEGIATAN (LMD 192)
p1084
sg9
Nsg10
Nsg11
V334 / S.6 / YPM - 5000 / VII - 1439
p1085
sg13
Nsg14
Nsg15
Nsg17
Nsg18
Nsg19
Nsg20
I333
sg21
Nsa(dp1086
g2
Nsg3
Nsg5
Nsg6
Nsg7
VSURAT IZIN PESERTA TDK MENGIKUTI KEGIATAN RUTIN (LMD 192)
p1087
sg9
Nsg10
Nsg11
V335 / S.14 / YPM - 5000 / VII - 1439
p1088
sg13
Nsg14
Nsg15
Nsg17
Nsg18
Nsg19
Nsg20
I334
sg21
Nsa(dp1089
g2
Nsg3
Nsg5
Nsg6
Nsg7
VSERTIFIKAT PESERTA (LMD 192)
p1090
sg9
Nsg10
Nsg11
V336 / S.4 / YPM - 5000 / VII - 1439
p1091
sg13
Nsg14
Nsg15
Nsg17
Nsg18
Nsg19
Nsg20
I335
sg21
Nsa(dp1092
g2
Nsg3
Nsg5
Nsg6
Nsg7
Nsg9
Nsg10
Nsg11
V337 / S.4 / YPM - 5000 / VII - 1439
p1093
sg13
Nsg14
Nsg15
Nsg17
Nsg18
Nsg19
Nsg20
I336
sg21
Nsa(dp1094
g2
Nsg3
Nsg5
Nsg6
Nsg7
Nsg9
Nsg10
Nsg11
V338 / S.4 / YPM - 5000 / VII - 1439
p1095
sg13
Nsg14
Nsg15
Nsg17
Nsg18
Nsg19
Nsg20
I337
sg21
Nsa(dp1096
g2
Nsg3
Nsg5
Nsg6
Nsg7
VTPHD KUOTA PEMBIMBING
p1097
sg9
Nsg10
Nsg11
V339 / S.6 / YPM - 4400 / VII - 1439
p1098
sg13
Nsg14
Nsg15
cdatetime
datetime
p1099
(S'\x07\xe2\x04\x02\x00\x00\x00\x00\x00\x00'
p1100
tp1101
Rp1102
sg17
Nsg18
VGUBERNUR JAWA BARAT
p1103
sg19
Nsg20
I338
sg21
Nsa(dp1104
g2
Nsg3
Nsg5
Nsg6
Nsg7
VPERMOHONAN NARASUMBER PENGAJIAN SABTU DHUHA
p1105
sg9
Nsg10
Nsg11
V340 / S.6 / YPM - 4000 / VII - 1439
p1106
sg13
Nsg14
Nsg15
g1099
(S'\x07\xe2\x04\x03\x00\x00\x00\x00\x00\x00'
p1107
tp1108
Rp1109
sg17
Nsg18
Nsg19
Nsg20
I339
sg21
Nsa(dp1110
g2
Nsg3
Nsg5
Nsg6
Nsg7
VPERNYATAAN KESIAPAN MENJAGA KERAHASIAAN
p1111
sg9
Nsg10
Nsg11
V341 / S.4 / YPM - B100 / VII - 1439
p1112
sg13
Nsg14
Nsg15
Nsg17
Nsg18
Nsg19
Nsg20
I340
sg21
Nsa(dp1113
g2
Nsg3
Nsg5
Nsg6
Nsg7
VPERNYATAAN KESIAPAN MEMBUKA INFORMASI PUBLIK
p1114
sg9
Nsg10
Nsg11
V342 / S.4 / YPM - B100 / VII - 1439
p1115
sg13
Nsg14
Nsg15
Nsg17
Nsg18
Nsg19
Nsg20
I341
sg21
Nsa(dp1116
g2
Nsg3
Nsg5
Nsg6
Nsg7
VPERMOHONAN PEMBUATAN PASPOR
p1117
sg9
Nsg10
Nsg11
V343 / S.6 / YPM - 5000 / VII - 1439
p1118
sg13
Nsg14
Nsg15
Nsg17
Nsg18
Nsg19
Nsg20
I342
sg21
Nsa(dp1119
g2
Nsg3
Nsg5
Nsg6
Nsg7
VSURAT KETERANGAN MENGIKUTI SERTIFIKASI PEMBIMBING IBADAH HAJI
p1120
sg9
Nsg10
Nsg11
V344 / S.4 / YPM - 1000 / VII - 1439
p1121
sg13
Nsg14
Nsg15
Nsg17
Nsg18
Nsg19
Nsg20
I343
sg21
Nsa(dp1122
g2
Nsg3
Nsg5
Nsg6
Nsg7
g1097
sg9
Nsg10
Nsg11
V345 / S.6 / YPM - 4400 / VII - 1439
p1123
sg13
Nsg14
Nsg15
g1099
(S'\x07\xe2\x04\x04\x00\x00\x00\x00\x00\x00'
p1124
tp1125
Rp1126
sg17
Nsg18
VKAKANWIL KEMENAG JABAR
p1127
sg19
Nsg20
I344
sg21
Nsa(dp1128
g2
Nsg3
Nsg5
Nsg6
Nsg7
VPEMINJAMAN BUS ITB (DISKON)
p1129
sg9
Nsg10
Nsg11
V346 / S.6 / YPM - 2100 / VII - 1439
p1130
sg13
Nsg14
Nsg15
Nsg17
Nsg18
g205
sg19
Nsg20
I345
sg21
Nsa(dp1131
g2
Nsg3
Nsg5
Nsg6
Nsg7
VPERMOHONAN PENGGANTI SERTIFIKAT SERTIFIKASI PEMBIMBING
p1132
sg9
Nsg10
Nsg11
V347 / S.6 / YPM - 2100 / VII - 1439
p1133
sg13
Nsg14
Nsg15
Nsg17
Nsg18
g1127
sg19
Nsg20
I346
sg21
Nsa(dp1134
g2
Nsg3
Nsg5
Nsg6
Nsg7
VSURAT KETERANGAN PENGALAMAN KERJA (PAKLARING - BUHORI MUSLIM)
p1135
sg9
Nsg10
Nsg11
V348 / S.4 / YPM - D101 / VII - 1439
p1136
sg13
Nsg14
Nsg15
Nsg17
Nsg18
Nsg19
Nsg20
I347
sg21
Nsa(dp1137
g2
Nsg3
Nsg5
Nsg6
Nsg7
VREKOMENDASI TPHD (YEDI PURWANTO)
p1138
sg9
Nsg10
Nsg11
V349 / S.5 / YPM - 4400 / VII - 1439
p1139
sg13
Nsg14
Nsg15
Nsg17
Nsg18
g1103
sg19
Nsg20
I348
sg21
Nsa(dp1140
g2
Nsg3
Nsg5
Nsg6
Nsg7
VREKOMENDASI TPHD (TIAN SUMARNA)
p1141
sg9
Nsg10
Nsg11
V350 / S.5 / YPM - 4400 / VII - 1439
p1142
sg13
Nsg14
Nsg15
Nsg17
Nsg18
g1103
sg19
Nsg20
I349
sg21
Nsa(dp1143
g2
Nsg3
Nsg5
Nsg6
Nsg7
VUAPAN TERIMA KASIH (KEGIATAN UAS)
p1144
sg9
Nsg10
Nsg11
V351 / S.12 / YPM - 1000 / VII - 1439
p1145
sg13
Nsg14
Nsg15
g1099
(S'\x07\xe2\x04\x05\x00\x00\x00\x00\x00\x00'
p1146
tp1147
Rp1148
sg17
Nsg18
VELZATTA
p1149
sg19
Nsg20
I350
sg21
Nsa(dp1150
g2
Nsg3
Nsg5
Nsg6
Nsg7
g1144
sg9
Nsg10
Nsg11
V352 / S.12 / YPM - 1000 / VII - 1439
p1151
sg13
Nsg14
Nsg15
Nsg17
Nsg18
VTELKOMSEL
p1152
sg19
Nsg20
I351
sg21
Nsa(dp1153
g2
Nsg3
Nsg5
Nsg6
Nsg7
g1144
sg9
Nsg10
Nsg11
V353 / S.12 / YPM - 1000 / VII - 1439
p1154
sg13
Nsg14
Nsg15
Nsg17
Nsg18
VALISHA TOUR
p1155
sg19
Nsg20
I352
sg21
Nsa(dp1156
g2
Nsg3
Nsg5
Nsg6
Nsg7
g1144
sg9
Nsg10
Nsg11
V354 / S.12 / YPM - 1000 / VII - 1439
p1157
sg13
Nsg14
Nsg15
Nsg17
Nsg18
VDAGO WISATA
p1158
sg19
Nsg20
I353
sg21
Nsa(dp1159
g2
Nsg3
Nsg5
Nsg6
Nsg7
g1144
sg9
Nsg10
Nsg11
V355 / S.12 / YPM - 1000 / VII - 1439
p1160
sg13
Nsg14
Nsg15
Nsg17
Nsg18
VMARABBI FOUNDATION
p1161
sg19
Nsg20
I354
sg21
Nsa(dp1162
g2
Nsg3
Nsg5
Nsg6
Nsg7
g1144
sg9
Nsg10
Nsg11
V356 / S.12 / YPM - 1000 / VII - 1439
p1163
sg13
Nsg14
Nsg15
Nsg17
Nsg18
VPOLRESTABER BANDUNG
p1164
sg19
Nsg20
I355
sg21
Nsa(dp1165
g2
Nsg3
Nsg5
Nsg6
Nsg7
g1144
sg9
Nsg10
Nsg11
V357 / S.12 / YPM - 1000 / VII - 1439
p1166
sg13
Nsg14
Nsg15
Nsg17
Nsg18
VPOLSEK COBLONG
p1167
sg19
Nsg20
I356
sg21
Nsa(dp1168
g2
Nsg3
Nsg5
Nsg6
Nsg7
g1144
sg9
Nsg10
Nsg11
V358 / S.12 / YPM - 1000 / VII - 1439
p1169
sg13
Nsg14
Nsg15
Nsg17
Nsg18
VBANDUNG FIGHTING CLUB
p1170
sg19
Nsg20
I357
sg21
Nsa(dp1171
g2
Nsg3
Nsg5
Nsg6
Nsg7
g1144
sg9
Nsg10
Nsg11
V359 / S.12 / YPM - 1000 / VII - 1439
p1172
sg13
Nsg14
Nsg15
Nsg17
Nsg18
g1042
sg19
Nsg20
I358
sg21
Nsa(dp1173
g2
Nsg3
Nsg5
Nsg6
Nsg7
g1144
sg9
Nsg10
Nsg11
V360 / S.12 / YPM - 1000 / VII - 1439
p1174
sg13
Nsg14
Nsg15
Nsg17
Nsg18
VBRIGADE PERSATUAN ISLAM
p1175
sg19
Nsg20
I359
sg21
Nsa(dp1176
g2
Nsg3
Nsg5
Nsg6
Nsg7
VPEMBERITAHUAN
p1177
sg9
Nsg10
Nsg11
V361 / S.2 / YPM - D100 / VII - 1439
p1178
sg13
Nsg14
Nsg15
Nsg17
Nsg18
VTENDY RAMADIN
p1179
sg19
Nsg20
I360
sg21
Nsa(dp1180
g2
Nsg3
Nsg5
Nsg6
Nsg7
VTANGGAPAN PENANGGUHAN PEMBAYARAN SEWA RUANGAN
p1181
sg9
Nsg10
Nsg11
V362 / S.16 / YPM - D100 / VII - 1439
p1182
sg13
Nsg14
Nsg15
g1099
(S'\x07\xe2\x04\x06\x00\x00\x00\x00\x00\x00'
p1183
tp1184
Rp1185
sg17
Nsg18
g76
sg19
Nsg20
I361
sg21
Nsa(dp1186
g2
Nsg3
Nsg5
Nsg6
Nsg7
VTANGGAPAN PERMOHONAN IZIN PENELITIAN / OBSERVASI
p1187
sg9
Nsg10
Nsg11
V363 / S.16 / YPM - 2100 / VII - 1439
p1188
sg13
Nsg14
Nsg15
Nsg17
Nsg18
VFAK. ADAB & HUMANIORA UIN SGD
p1189
sg19
Nsg20
I362
sg21
Nsa(dp1190
g2
Nsg3
Nsg5
Nsg6
Nsg7
VPERMOHONAN KHATIB IDUL FITRI 1439 H
p1191
sg9
Nsg10
Nsg11
V364 / S.6 / YPM - 1000 / VII - 1439
p1192
sg13
Nsg14
Nsg15
g1099
(S'\x07\xe2\x04\x07\x00\x00\x00\x00\x00\x00'
p1193
tp1194
Rp1195
sg17
Nsg18
VPROF. DR. IR. TUBAGUS AHMAD SULAIMAN
p1196
sg19
Nsg20
I363
sg21
Nsa(dp1197
g2
Nsg3
Nsg5
Nsg6
Nsg7
VKETERANGAN DOMISILI PT. SVARA INOVASI INDONESIA
p1198
sg9
Nsg10
Nsg11
V365 / S.4 / YPM - 1000 / VII - 1439
p1199
sg13
Nsg14
Nsg15
g1099
(S'\x07\xe2\x04\t\x00\x00\x00\x00\x00\x00'
p1200
tp1201
Rp1202
sg17
Nsg18
Nsg19
Nsg20
I364
sg21
Nsa(dp1203
g2
Nsg3
Nsg5
Nsg6
Nsg7
VSERTIFIKAT PENGAJAR LEARNING CAMP PERINTIS 2017
p1204
sg9
Nsg10
Nsg11
V366 / S.4 / YPM - 7000 / VII - 1439
p1205
sg13
Nsg14
Nsg15
Nsg17
Nsg18
Nsg19
Nsg20
I365
sg21
Nsa(dp1206
g2
Nsg3
Nsg5
Nsg6
Nsg7
VPEMBUATAN PASPOR IBU BUDIYATI
p1207
sg9
Nsg10
Nsg11
V367 / S.4 / YPM - 6300 / VII - 1439
p1208
sg13
Nsg14
Nsg15
g1099
(S'\x07\xe2\x04\n\x00\x00\x00\x00\x00\x00'
p1209
tp1210
Rp1211
sg17
Nsg18
VKEPALA KANTOR IMIGRASI JAKARTA SELATAN
p1212
sg19
Nsg20
I366
sg21
Nsa(dp1213
g2
Nsg3
Nsg5
Nsg6
Nsg7
VSURAT KETERANGAN KERJA (DIDIN WAHYUDIN)
p1214
sg9
Nsg10
Nsg11
V368 / S.4 / YPM - D101 / VII - 1439
p1215
sg13
Nsg14
Nsg15
g1099
(S'\x07\xe2\x04\x0b\x00\x00\x00\x00\x00\x00'
p1216
tp1217
Rp1218
sg17
Nsg18
Nsg19
Nsg20
I367
sg21
Nsa(dp1219
g2
Nsg3
Nsg5
Nsg6
Nsg7
VSURAT TUGAS RANGKAIAN TEST LANJUTAN (YEDI PURWANTO)
p1220
sg9
Nsg10
Nsg11
V369 / S.11 / YPM - 1000 / VII - 1439
p1221
sg13
Nsg14
Nsg15
Nsg17
Nsg18
Nsg19
Nsg20
I368
sg21
Nsa(dp1222
g2
Nsg3
Nsg5
Nsg6
Nsg7
VSURAT TUGAS RANGKAIAN TEST LANJUTAN (SALIM RUSLI)
p1223
sg9
Nsg10
Nsg11
V370 / S.11 / YPM - 1000 / VII - 1439
p1224
sg13
Nsg14
Nsg15
Nsg17
Nsg18
Nsg19
Nsg20
I369
sg21
Nsa(dp1225
g2
Nsg3
Nsg5
Nsg6
Nsg7
g79
sg9
Nsg10
Nsg11
V371 / S.8 / YPM - 1000 / VII - 1439
p1226
sg13
Nsg14
Nsg15
Nsg17
Nsg18
Nsg19
Nsg20
I370
sg21
Nsa(dp1227
g2
Nsg3
Nsg5
Nsg6
Nsg7
VPERMOHONAN PEMATERI LMD NASIONAL
p1228
sg9
Nsg10
Nsg11
V372 / S.6 / YPM - 5000 / VII - 1439
p1229
sg13
Nsg14
Nsg15
Nsg17
Nsg18
Nsg19
Nsg20
I371
sg21
Nsa(dp1230
g2
Nsg3
Nsg5
Nsg6
Nsg7
VRAPAT PEMBINA
p1231
sg9
Nsg10
Nsg11
V373 / S.7 / YPM - 0000 / VII - 1439
p1232
sg13
Nsg14
Nsg15
Nsg17
Nsg18
Nsg19
Nsg20
I372
sg21
Nsa(dp1233
g2
Nsg3
Nsg5
Nsg6
Nsg7
VPUBLIKASI KEGIATAN BD
p1234
sg9
Nsg10
Nsg11
V374 / S.2 / YPM - 4000 / VII - 1439
p1235
sg13
Nsg14
Nsg15
g1099
(S'\x07\xe2\x04\x0c\x00\x00\x00\x00\x00\x00'
p1236
tp1237
Rp1238
sg17
Nsg18
Nsg19
Nsg20
I373
sg21
Nsa(dp1239
g2
Nsg3
Nsg5
Nsg6
Nsg7
VSURAT IZIN MENINGGALKAN PESANTREN
p1240
sg9
Nsg10
Nsg11
V375 / S.14 / YPM - 5000 / VII - 1439
p1241
sg13
Nsg14
Nsg15
Nsg17
Nsg18
Nsg19
Nsg20
I374
sg21
Nsa(dp1242
g2
Nsg3
Nsg5
Nsg6
Nsg7
VPERMOHONAN MENGIKUTI SUSULAN UJIAN AKHIR PESANTREN
p1243
sg9
Nsg10
Nsg11
V376 / S.6 / YPM - 5000 / VII - 1439
p1244
sg13
Nsg14
Nsg15
Nsg17
Nsg18
Nsg19
Nsg20
I375
sg21
Nsa(dp1245
g2
Nsg3
Nsg5
Nsg6
Nsg7
VPENGUNDURAN DIRI PESERTA
p1246
sg9
Nsg10
Nsg11
V377 / S.4 / YPM - 5000 / VII - 1439
p1247
sg13
Nsg14
Nsg15
Nsg17
Nsg18
Nsg19
Nsg20
I376
sg21
Nsa(dp1248
g2
Nsg3
Nsg5
Nsg6
Nsg7
VUNDANGAN JULEHA
p1249
sg9
Nsg10
Nsg11
V378 / S.7 / YPM - B100 / VII - 1439
p1250
sg13
Nsg14
Nsg15
Nsg17
Nsg18
Nsg19
Nsg20
I377
sg21
Nsa(dp1251
g2
Nsg3
Nsg5
Nsg6
Nsg7
VSK STAF AHLI BIDANG DAKWAH
p1252
sg9
Nsg10
Nsg11
V379 / S.1 / YPM - 4000 / VII - 1439
p1253
sg13
Nsg14
Nsg15
g1099
(S'\x07\xe2\x04\r\x00\x00\x00\x00\x00\x00'
p1254
tp1255
Rp1256
sg17
Nsg18
Nsg19
Nsg20
I378
sg21
Nsa(dp1257
g2
Nsg3
Nsg5
Nsg6
Nsg7
VMOU
p1258
sg9
Nsg10
Nsg11
V380 / S.9 / YPM - 7000 / VII - 1439
p1259
sg13
Nsg14
Nsg15
Nsg17
Nsg18
Nsg19
Nsg20
I379
sg21
Nsa(dp1260
g2
Nsg3
Nsg5
Nsg6
Nsg7
VADDENDUM PERJANJIAN PENGADAAN DAN INSTALASI SISTEM TATA SUARA TAHAP 1
p1261
sg9
Nsg10
Nsg11
V381 / S.9 / YPM - 1000 / VII - 1439
p1262
sg13
Nsg14
Nsg15
Nsg17
Nsg18
Nsg19
Nsg20
I380
sg21
Nsa(dp1263
g2
Nsg3
Nsg5
Nsg6
Nsg7
VPERJANJIAN KERJA (ROSMETA)
p1264
sg9
Nsg10
Nsg11
V382 / S.9 / YPM - 4000 / VII - 1439
p1265
sg13
Nsg14
Nsg15
Nsg17
Nsg18
Nsg19
Nsg20
I381
sg21
Nsa(dp1266
g2
Nsg3
Nsg5
Nsg6
Nsg7
Nsg9
Nsg10
Nsg11
V383 / S.9 / YPM - 2000 / VII - 1439
p1267
sg13
Nsg14
Nsg15
Nsg17
Nsg18
Nsg19
Nsg20
I382
sg21
Nsa(dp1268
g2
Nsg3
g61
sg5
Nsg6
Nsg7
VPEMINJAMAN TEMPAT
p1269
sg9
Nsg10
Nsg11
V384 / S.16 / YPM - 2100 / VII - 1439
p1270
sg13
Nsg14
Nsg15
g1099
(S'\x07\xe2\x04\x0e\x00\x00\x00\x00\x00\x00'
p1271
tp1272
Rp1273
sg17
Nsg18
VAPOTEK DIANKA FARMA
p1274
sg19
Nsg20
I383
sg21
Nsa(dp1275
g2
Nsg3
Nsg5
Nsg6
Nsg7
VSURAT TUGAS PELATIHAN SKEMA SERTIFIKASI HALAL DAN DPLS 21
p1276
sg9
Nsg10
Nsg11
V385 / S.11 / YPM - B100 / VII - 1439
p1277
sg13
Nsg14
Nsg15
g1099
(S'\x07\xe2\x04\x10\x00\x00\x00\x00\x00\x00'
p1278
tp1279
Rp1280
sg17
Nsg18
Nsg19
Nsg20
I384
sg21
Nsa(dp1281
g2
Nsg3
Nsg5
Nsg6
Nsg7
VTANGGAPAN SURAT PERMOHONAN TEMPAT PELATIHAN PEMOTONGAN HEWAN QURBAN ANGKATAN I DAN II TAHUN 2018
p1282
sg9
Nsg10
Nsg11
V386 / S.16 / YPM - 1000 / VII - 1439
p1283
sg13
Nsg14
Nsg15
Nsg17
Nsg18
VDINAS PANGAN DAN PERTANIAN KOTA BANDUNG
p1284
sg19
Nsg20
I385
sg21
Nsa(dp1285
g2
Nsg3
Nsg5
Nsg6
Nsg7
VPERMOHONAN FASILITAS (ACARA SILATURAHIM MENJELANG RAMADHAN)
p1286
sg9
Nsg10
Nsg11
V387 / S.6 / YPM - 1000 / VIII - 1439
p1287
sg13
Nsg14
Nsg15
g1099
(S'\x07\xe2\x04\x11\x00\x00\x00\x00\x00\x00'
p1288
tp1289
Rp1290
sg17
Nsg18
VKELUARGA BAPAK ACHMAD NOE'MAN
p1291
sg19
Nsg20
I386
sg21
Nsa(dp1292
g2
Nsg3
Nsg5
Nsg6
Nsg7
VSURAT TUGAS PEMBIMBING UMROH (ANDRI MULYADI)
p1293
sg9
Nsg10
Nsg11
V388 / S.11 / YPM - 1000 / VIII - 1439
p1294
sg13
Nsg14
Nsg15
Nsg17
Nsg18
Nsg19
Nsg20
I387
sg21
Nsa(dp1295
g2
Nsg3
Nsg5
Nsg6
Nsg7
VUNDANGAN SILATURAHIM
p1296
sg9
Nsg10
Nsg11
V389 / S.7 / YPM - 1000 / VIII - 1439
p1297
sg13
Nsg14
Nsg15
Nsg17
Nsg18
Nsg19
Nsg20
I388
sg21
Nsa(dp1298
g2
Nsg3
Nsg5
Nsg6
Nsg7
VSURAT REKOMENDASI (INGGRIS)
p1299
sg9
Nsg10
Nsg11
V390 / S.8 / YPM - 2100 / VIII - 1439
p1300
sg13
Nsg14
Nsg15
Nsg17
Nsg18
Nsg19
Nsg20
I389
sg21
Nsa(dp1301
g2
Nsg3
Nsg5
Nsg6
Nsg7
VSURAT KETERANGAN AKTIVITAS (dr. DEWI RATNA KOMALA)
p1302
sg9
Nsg10
Nsg11
V391 / S.4 / YPM - 7000 / VIII - 1439
p1303
sg13
Nsg14
Nsg15
Nsg17
Nsg18
Nsg19
Nsg20
I390
sg21
Nsa(dp1304
g2
Nsg3
Nsg5
Nsg6
Nsg7
VUNDANGAN "PRESENTASI & DISKUSI HASIL EVALUASI MKE RAS 2016-2017"
p1305
sg9
Nsg10
Nsg11
V392 / S.7 / YPM - 0000 / VIII - 1439
p1306
sg13
Nsg14
Nsg15
g1099
(S'\x07\xe2\x04\x12\x00\x00\x00\x00\x00\x00'
p1307
tp1308
Rp1309
sg17
Nsg18
Nsg19
Nsg20
I391
sg21
Nsa(dp1310
g2
Nsg3
Nsg5
Nsg6
Nsg7
VSERTIFIKAT SPN 32
p1311
sg9
Nsg10
Nsg11
V393 / S.4 / YPM - 4000 / VIII - 1439
p1312
sg13
Nsg14
Nsg15
Nsg17
Nsg18
Nsg19
Nsg20
I392
sg21
Nsa(dp1313
g2
Nsg3
Nsg5
Nsg6
Nsg7
VREKOMENDASI KEIKUTSERTAAN PROGRAM KAJIAN "LIFE OF MUSLIM IN GERMANY" OLEH GOETHE INSTITUT INDONESIEN DAN PARAMADINA UNIVERSITY
p1314
sg9
Nsg10
Nsg11
V394 / S.5 / YPM - 5000 / VIII - 1439
p1315
sg13
Nsg14
Nsg15
Nsg17
Nsg18
VPANITIA LIFE OF MUSLIM IN GERMANY
p1316
sg19
Nsg20
I393
sg21
Nsa(dp1317
g2
Nsg3
Nsg5
Nsg6
Nsg7
g1314
sg9
Nsg10
Nsg11
V395 / S.4 / YPM - 4000 / VIII - 1439
p1318
sg13
Nsg14
Nsg15
Nsg17
Nsg18
g1316
sg19
Nsg20
I394
sg21
Nsa(dp1319
g2
Nsg3
Nsg5
Nsg6
Nsg7
VSURAT PERMOHONAN BANTUAN GENSET
p1320
sg9
Nsg10
Nsg11
V396 / S.6 / YPM - 1000 / VIII - 1439
p1321
sg13
Nsg14
Nsg15
Nsg17
Nsg18
Nsg19
Nsg20
I395
sg21
Nsa(dp1322
g2
Nsg3
Nsg5
Nsg6
Nsg7
VSURAT PEMINJAMAN TEMPAT (LMD NASIONAL)
p1323
sg9
Nsg10
Nsg11
V397 / S.6 / YPM - 5000 / VIII - 1439
p1324
sg13
Nsg14
Nsg15
Nsg17
Nsg18
Nsg19
Nsg20
I396
sg21
Nsa(dp1325
g2
Nsg3
Nsg5
Nsg6
Nsg7
VSURAT KETERANGAN AKTIF DI LPP (MAMAT AROHMAN)
p1326
sg9
Nsg10
Nsg11
V398 / S.4 / YPM - 7000 / VIII - 1439
p1327
sg13
Nsg14
Nsg15
Nsg17
Nsg18
Nsg19
Nsg20
I397
sg21
Nsa(dp1328
g2
Nsg3
Nsg5
Nsg6
Nsg7
VPERMOHONAN PEMATERI KUR PWS
p1329
sg9
Nsg10
Nsg11
V399 / S.6 / YPM - 4300 / VIII - 1439
p1330
sg13
Nsg14
Nsg15
g1099
(S'\x07\xe2\x04\x13\x00\x00\x00\x00\x00\x00'
p1331
tp1332
Rp1333
sg17
Nsg18
Nsg19
Nsg20
I398
sg21
Nsa(dp1334
g2
Nsg3
Nsg5
Nsg6
Nsg7
VIZIN KEGIATAN LMD NASIONAL
p1335
sg9
Nsg10
Nsg11
V400 / S.2 / YPM - 5000 / VIII - 1439
p1336
sg13
Nsg14
Nsg15
g1099
(S'\x07\xe2\x04\x14\x00\x00\x00\x00\x00\x00'
p1337
tp1338
Rp1339
sg17
Nsg18
Nsg19
Nsg20
I399
sg21
Nsa(dp1340
g2
Nsg3
Nsg5
Nsg6
Nsg7
VPENGAJUAN KOMISARIS PT BPRS ALSALAAM AMAL SALMAN
p1341
sg9
Nsg10
Nsg11
V401 / S.6 / YPM - 0000 / VIII - 1439
p1342
sg13
Nsg14
Nsg15
Nsg17
Nsg18
Nsg19
Nsg20
I400
sg21
Nsa(dp1343
g2
Nsg3
Nsg5
Nsg6
Nsg7
VEDARAN KERJA BAKTI
p1344
sg9
Nsg10
Nsg11
V402 / S.3 / YPM - 1000 / VIII - 1439
p1345
sg13
Nsg14
Nsg15
g1099
(S'\x07\xe2\x04\x15\x00\x00\x00\x00\x00\x00'
p1346
tp1347
Rp1348
sg17
Nsg18
Nsg19
Nsg20
I401
sg21
Nsa(dp1349
g2
Nsg3
VAMY HAMIDAH
p1350
sg5
Nsg6
Nsg7
VSURAT TAGIHAN PIUTANG
p1351
sg9
Nsg10
Nsg11
V403 / S.2 / YPM - 3000 / VIII - 1439
p1352
sg13
Nsg14
Nsg15
Nsg17
Nsg18
Nsg19
Nsg20
I402
sg21
Nsa(dp1353
g2
Nsg3
VYAZID BINDAR
p1354
sg5
Nsg6
Nsg7
VPERMOHONAN ISBN
p1355
sg9
Nsg10
Nsg11
V404 / S.6 / YPM - 6000 / VIII - 1439
p1356
sg13
Nsg14
Nsg15
Nsg17
Nsg18
Nsg19
Nsg20
I403
sg21
Nsa(dp1357
g2
Nsg3
Nsg5
Nsg6
Nsg7
VSURAT PERINGATAN 1 (IPAH ROSIPAH)
p1358
sg9
Nsg10
Nsg11
V405 / S.13 / YPM - D101 / VIII - 1439
p1359
sg13
Nsg14
Nsg15
Nsg17
Nsg18
Nsg19
Nsg20
I404
sg21
Nsa(dp1360
g2
Nsg3
Nsg5
Nsg6
Nsg7
VSURAT PENGAJUAN PEMASANGAN SPANDUK WAKAF DI TOL
p1361
sg9
Nsg10
Nsg11
V406 / S.6 / YPM - C100 / VIII - 1439
p1362
sg13
Nsg14
Nsg15
g1099
(S'\x07\xe2\x04\x18\x00\x00\x00\x00\x00\x00'
p1363
tp1364
Rp1365
sg17
Nsg18
Nsg19
Nsg20
I405
sg21
Nsa(dp1366
g2
Nsg3
Nsg5
Nsg6
Nsg7
VPERMOHONAN NARASUMBER (KSM PALEMBANG)
p1367
sg9
Nsg10
Nsg11
V407 / S.6 / YPM - 7000 / VIII - 1439
p1368
sg13
Nsg14
Nsg15
Nsg17
Nsg18
Nsg19
Nsg20
I406
sg21
Nsa(dp1369
g2
Nsg3
Nsg5
Nsg6
Nsg7
VSURAT TUGAS (MAMAT)
p1370
sg9
Nsg10
Nsg11
V408 / S.11 / YPM - 1000 / VIII - 1439
p1371
sg13
Nsg14
Nsg15
g1099
(S'\x07\xe2\x04\x19\x00\x00\x00\x00\x00\x00'
p1372
tp1373
Rp1374
sg17
Nsg18
Nsg19
Nsg20
I407
sg21
Nsa(dp1375
g2
Nsg3
Nsg5
Nsg6
Nsg7
VSURAT PEMBERITAHUAN
p1376
sg9
Nsg10
Nsg11
V409 / S.2 / YPM - D101 / VIII - 1439
p1377
sg13
Nsg14
Nsg15
Nsg17
Nsg18
Nsg19
Nsg20
I408
sg21
Nsa(dp1378
g2
Nsg3
Nsg5
Nsg6
Nsg7
g1376
sg9
Nsg10
Nsg11
V410 / S.2 / YPM - D101 / VIII - 1439
p1379
sg13
Nsg14
Nsg15
Nsg17
Nsg18
Nsg19
Nsg20
I409
sg21
Nsa(dp1380
g2
Nsg3
Nsg5
Nsg6
Nsg7
g1376
sg9
Nsg10
Nsg11
V411 / S.2 / YPM - D101 / VIII - 1439
p1381
sg13
Nsg14
Nsg15
Nsg17
Nsg18
Nsg19
Nsg20
I410
sg21
Nsa(dp1382
g2
Nsg3
Nsg5
Nsg6
Nsg7
VSURAT PERJANJIAN
p1383
sg9
Nsg10
Nsg11
V412 / S.9 / YPM - D101 / VIII - 1439
p1384
sg13
Nsg14
Nsg15
Nsg17
Nsg18
Nsg19
Nsg20
I411
sg21
Nsa(dp1385
g2
Nsg3
Nsg5
Nsg6
Nsg7
g1383
sg9
Nsg10
Nsg11
V413 / S.9 / YPM - D101 / VIII - 1439
p1386
sg13
Nsg14
Nsg15
Nsg17
Nsg18
Nsg19
Nsg20
I412
sg21
Nsa(dp1387
g2
Nsg3
Nsg5
Nsg6
Nsg7
g1383
sg9
Nsg10
Nsg11
V414 / S.9 / YPM - D101 / VIII - 1439
p1388
sg13
Nsg14
Nsg15
Nsg17
Nsg18
Nsg19
Nsg20
I413
sg21
Nsa(dp1389
g2
Nsg3
Nsg5
Nsg6
Nsg7
VSURAT PERNYATAAN MEDIS (LMD 192)
p1390
sg9
Nsg10
Nsg11
V415 / S.4 / YPM - 5000 / VIII - 1439
p1391
sg13
Nsg14
Nsg15
Nsg17
Nsg18
Nsg19
Nsg20
I414
sg21
Nsa(dp1392
g2
Nsg3
Nsg5
Nsg6
Nsg7
VSURAT PERNYATAAN KETUA (LMD 192)
p1393
sg9
Nsg10
Nsg11
V416 / S.4 / YPM - 5000 / VIII - 1439
p1394
sg13
Nsg14
Nsg15
Nsg17
Nsg18
Nsg19
Nsg20
I415
sg21
Nsa(dp1395
g2
Nsg3
Nsg5
Nsg6
Nsg7
VPERMOHONAN IMAM SHALAT QIYAMULLAIL
p1396
sg9
Nsg10
Nsg11
V417 / S.6 / YPM - 5000 / VIII - 1439
p1397
sg13
Nsg14
Nsg15
g1099
(S'\x07\xe2\x04\x1c\x00\x00\x00\x00\x00\x00'
p1398
tp1399
Rp1400
sg17
Nsg18
VUSTADZ KHANOVA MAULANA, LC
p1401
sg19
Nsg20
I416
sg21
Nsa(dp1402
g2
Nsg3
Nsg5
Nsg6
Nsg7
VSURAT TUGAS DIKLAT TEKNIS SUBSTANTIF CALON AUDITOR HALAL ANGKATAN I & II
p1403
sg9
Nsg10
Nsg11
V418 / S.11 / YPM - B100 / VIII - 1439
p1404
sg13
Nsg14
Nsg15
Nsg17
Nsg18
Nsg19
Nsg20
I417
sg21
Nsa(dp1405
g2
Nsg3
Nsg5
Nsg6
Nsg7
VSURAT TUGAS DIKLAT TEKNIS SUBSTANTIF CALON AUDITOR HALAL ANGKATAN I & II (PA IIM)
p1406
sg9
Nsg10
Nsg11
V419 / S.11 / YPM - B100 / VIII - 1439
p1407
sg13
Nsg14
Nsg15
Nsg17
Nsg18
Nsg19
Nsg20
I418
sg21
Nsa(dp1408
g2
Nsg3
Nsg5
Nsg6
Nsg7
Nsg9
Nsg10
Nsg11
V420 / S.11 / YPM - B100 / VIII - 1439
p1409
sg13
Nsg14
Nsg15
Nsg17
Nsg18
Nsg19
Nsg20
I419
sg21
Nsa(dp1410
g2
Nsg3
Nsg5
Nsg6
Nsg7
Nsg9
Nsg10
Nsg11
V421 / S.11 / YPM - B100 / VIII - 1439
p1411
sg13
Nsg14
Nsg15
Nsg17
Nsg18
Nsg19
Nsg20
I420
sg21
Nsa(dp1412
g2
Nsg3
Nsg5
Nsg6
Nsg7
VSERTIFIKAT
p1413
sg9
Nsg10
Nsg11
V422 / S.4 / YPM - 7000 / VIII - 1439
p1414
sg13
Nsg14
Nsg15
V02 Mei 2018
p1415
sg17
Nsg18
Nsg19
Nsg20
I421
sg21
Nsa(dp1416
g2
Nsg3
Nsg5
Nsg6
Nsg7
VSURAT PERNYATAAN KEPEMILIKAN FILM IQRO
p1417
sg9
Nsg10
Nsg11
V423 / S.4 / YPM - 6300 / VIII - 1439
p1418
sg13
Nsg14
Nsg15
V03 Mei 2018
p1419
sg17
Nsg18
VPUSAT PENGEMBANGAN PERFILMAN
p1420
sg19
Nsg20
I422
sg21
Nsa(dp1421
g2
Nsg3
Nsg5
Nsg6
Nsg7
VSURAT HAK TAYANG FILM IQRO
p1422
sg9
Nsg10
Nsg11
V424 / S.4 / YPM - 6300 / VIII - 1439
p1423
sg13
Nsg14
Nsg15
Nsg17
Nsg18
g1420
sg19
Nsg20
I423
sg21
Nsa(dp1424
g2
Nsg3
Nsg5
Nsg6
Nsg7
VSURAT FILM IQRO
p1425
sg9
Nsg10
Nsg11
V425 / S.4 / YPM - 6300 / VIII - 1439
p1426
sg13
Nsg14
Nsg15
Nsg17
Nsg18
g1420
sg19
Nsg20
I424
sg21
Nsa(dp1427
g2
Nsg3
Nsg5
Nsg6
Nsg7
VSURAT PERMOHONAN PEMATERI MABIT AKTIVIS
p1428
sg9
Nsg10
Nsg11
V426 / S.6 / YPM - 5000 / VIII - 1439
p1429
sg13
Nsg14
Nsg15
Nsg17
Nsg18
VKEPALA CABANG KNRP JABAR
p1430
sg19
Nsg20
I425
sg21
Nsa(dp1431
g2
Nsg3
Nsg5
Nsg6
Nsg7
VSURAT PUBLIKASI PETTASAN
p1432
sg9
Nsg10
Nsg11
V427 / S.2 / YPM - 4000 / VIII - 1439
p1433
sg13
Nsg14
Nsg15
Nsg17
Nsg18
Nsg19
Nsg20
I426
sg21
Nsa(dp1434
g2
Nsg3
Nsg5
Nsg6
Nsg7
VLETTER OF INVITATION PESERTA LMD NASIONAL
p1435
sg9
Nsg10
Nsg11
V428 / S.5 / YPM - 5000 / VIII - 1439
p1436
sg13
Nsg14
Nsg15
Nsg17
Nsg18
Nsg19
Nsg20
I427
sg21
Nsa(dp1437
g2
Nsg3
Nsg5
Nsg6
Nsg7
VSERTIFIKAT LMD NASIONAL
p1438
sg9
Nsg10
Nsg11
V429 / S.4 / YPM - 5000 / VIII - 1439
p1439
sg13
Nsg14
Nsg15
Nsg17
Nsg18
Nsg19
Nsg20
I428
sg21
Nsa(dp1440
g2
Nsg3
Nsg5
Nsg6
Nsg7
VSERTIFIKAT IKRAR ISLAM (RICHARDUS ADI SANJAYA)
p1441
sg9
Nsg10
Nsg11
V430 / S.4 / YPM - 4000 / VIII - 1439
p1442
sg13
Nsg14
Nsg15
Nsg17
Nsg18
Nsg19
Nsg20
I429
sg21
Nsa(dp1443
g2
Nsg3
Nsg5
Nsg6
Nsg7
VSERTIFIKAT IKRAR ISLAM (RAHAYU KURNIANINGSIH)
p1444
sg9
Nsg10
Nsg11
V431 / S.4 / YPM - 4000 / VIII - 1439
p1445
sg13
Nsg14
Nsg15
Nsg17
Nsg18
Nsg19
Nsg20
I430
sg21
Nsa(dp1446
g2
Nsg3
Nsg5
Nsg6
Nsg7
VSERTIFIKAT IKRAR ISLAM (JOHAN P.)
p1447
sg9
Nsg10
Nsg11
V432 / S.4 / YPM - 4000 / VIII - 1439
p1448
sg13
Nsg14
Nsg15
Nsg17
Nsg18
Nsg19
Nsg20
I431
sg21
Nsa(dp1449
g2
Nsg3
Nsg5
Nsg6
Nsg7
VTANGGAPAN PERMOHONAN PENAMBAHAN/PERLUASAN RUANGAN
p1450
sg9
Nsg10
Nsg11
V433 / S.16 / YPM - D100 / VIII - 1439
p1451
sg13
Nsg14
Nsg15
V07 Mei 2018
p1452
sg17
Nsg18
VPT QUADRAN ENERGI REKAYASAN
p1453
sg19
Nsg20
I432
sg21
Nsa(dp1454
g2
Nsg3
Nsg5
Nsg6
Nsg7
VEDARAN K3L
p1455
sg9
Nsg10
Nsg11
V434 / S.3 / YPM - D100 / VIII - 1439
p1456
sg13
Nsg14
Nsg15
Nsg17
Nsg18
Nsg19
Nsg20
I433
sg21
Nsa(dp1457
g2
Nsg3
Nsg5
Nsg6
Nsg7
VSURAT IZIN PANITIA (LMD NASIONAL)
p1458
sg9
Nsg10
Nsg11
V435 / S.14 / YPM - 5000 / VIII - 1439
p1459
sg13
Nsg14
Nsg15
Nsg17
Nsg18
Nsg19
Nsg20
I434
sg21
Nsa(dp1460
g2
Nsg3
Nsg5
Nsg6
Nsg7
VEDARAN TARIF PARKIR ABODEMEN
p1461
sg9
Nsg10
Nsg11
V436 / S.3 / YPM - D100 / VIII - 1439
p1462
sg13
Nsg14
Nsg15
Nsg17
Nsg18
Nsg19
Nsg20
I435
sg21
Nsa(dp1463
g2
Nsg3
Nsg5
Nsg6
Nsg7
VSK PERATURAN YAYASAN
p1464
sg9
Nsg10
Nsg11
V437 / S.1 / YPM - 1000 / VIII - 1439
p1465
sg13
Nsg14
Nsg15
Nsg17
Nsg18
Nsg19
Nsg20
I436
sg21
Nsa(dp1466
g2
Nsg3
Nsg5
Nsg6
Nsg7
VSK PERATURAN PENSIUN DINI
p1467
sg9
Nsg10
Nsg11
V438 / S.1 / YPM - 1000 / VIII - 1439
p1468
sg13
Nsg14
Nsg15
Nsg17
Nsg18
Nsg19
Nsg20
I437
sg21
Nsa(dp1469
g2
Nsg3
Nsg5
Nsg6
Nsg7
VPERMOHONAN PEMINJAMAN BUS (TASYAKUR WISATA RAS)
p1470
sg9
Nsg10
Nsg11
V439 / S.6 / YPM - 8000 / VIII - 1439
p1471
sg13
Nsg14
Nsg15
Nsg17
Nsg18
VDIREKTUR SARANA & PRASARANA ITB
p1472
sg19
Nsg20
I438
sg21
Nsa(dp1473
g2
Nsg3
Nsg5
Nsg6
Nsg7
VUNDANGAN PEMATERI LAUNCHING GERAKAN PEMUDA WAKAF
p1474
sg9
Nsg10
Nsg11
V440 / S.6 / YPM - C100 / VIII - 1439
p1475
sg13
Nsg14
Nsg15
Nsg17
Nsg18
VPROF. DR. H. MOHAMMAD NUH, DEA
p1476
sg19
Nsg20
I439
sg21
Nsa(dp1477
g2
Nsg3
Nsg5
Nsg6
Nsg7
VTANGGAPAN SAFETY DRILL
p1478
sg9
Nsg10
Nsg11
V441 / S.16 / YPM - D100 / VIII - 1439
p1479
sg13
Nsg14
Nsg15
Nsg17
Nsg18
VUPT K3L
p1480
sg19
Nsg20
I440
sg21
Nsa(dp1481
g2
Nsg3
Nsg5
Nsg6
Nsg7
VPERMOHONAN MEMBERI SAMBUTAN
p1482
sg9
Nsg10
Nsg11
V442 / S.6 / YPM - 5000 / VIII - 1439
p1483
sg13
Nsg14
Nsg15
V08 Mei 2018
p1484
sg17
Nsg18
VREKTOR
p1485
sg19
Nsg20
I441
sg21
Nsa(dp1486
g2
Nsg3
Nsg5
Nsg6
Nsg7
g985
sg9
Nsg10
Nsg11
V443 / S.7 / YPM - 5000 / VIII - 1439
p1487
sg13
Nsg14
Nsg15
Nsg17
Nsg18
VPEMBINA & PENGURUS SALMAN
p1488
sg19
Nsg20
I442
sg21
Nsa(dp1489
g2
Nsg3
Nsg5
Nsg6
Nsg7
VUNDANGAN NOBAR
p1490
sg9
Nsg10
Nsg11
V444 / S.7 / YPM - 6300 / VIII - 1439
p1491
sg13
Nsg14
Nsg15
Nsg17
Nsg18
VDR. ILHAM AKBAR HABIBIE
p1492
sg19
Nsg20
I443
sg21
Nsa(dp1493
g2
Nsg3
Nsg5
Nsg6
Nsg7
VSURAT KUASA PERPANJANGAN STNK D 6851 AAE (PAJAK 1 TAHUN)
p1494
sg9
Nsg10
Nsg11
V445 / S.8 / YPM - 8000 / VIII - 1439
p1495
sg13
Nsg14
Nsg15
V09 Mei 2018
p1496
sg17
Nsg18
Nsg19
Nsg20
I444
sg21
Nsa(dp1497
g2
Nsg3
Nsg5
Nsg6
Nsg7
g1117
sg9
Nsg10
Nsg11
V447 / S.6 / YPM - 5000 / VIII - 1439
p1498
sg13
Nsg14
Nsg15
Nsg17
Nsg18
VIMIGRASI TASIKMALAYA
p1499
sg19
Nsg20
I446
sg21
Nsa(dp1500
g2
Nsg3
Nsg5
Nsg6
Nsg7
VUNDANGAN STUDI BANDING
p1501
sg9
Nsg10
Nsg11
V448 / S.7 / YPM - 2100 / VIII - 1439
p1502
sg13
Nsg14
Nsg15
Nsg17
Nsg18
VDIREKTUR DPPAI UII JOGJAKARTA
p1503
sg19
Nsg20
I447
sg21
Nsa(dp1504
g2
Nsg3
Nsg5
Nsg6
Nsg7
g164
sg9
Nsg10
Nsg11
V449 / S.7 / YPM - 0000 / VIII - 1439
p1505
sg13
Nsg14
Nsg15
Nsg17
Nsg18
Nsg19
Nsg20
I448
sg21
Nsa(dp1506
g2
Nsg3
Nsg5
Nsg6
Nsg7
VPEMINJAMAN TAMAN GANESHA (KOMUNITAS JAJAN PAHALA)
p1507
sg9
Nsg10
Nsg11
V450 / S.6 / YPM - 2100 / VIII - 1439
p1508
sg13
Nsg14
Nsg15
Nsg17
Nsg18
Nsg19
Nsg20
I449
sg21
Nsa(dp1509
g2
Nsg3
Nsg5
Nsg6
Nsg7
Nsg9
Nsg10
Nsg11
V451 / S.-- / YPM - ---- / VIII - 1439
p1510
sg13
Nsg14
Nsg15
Nsg17
Nsg18
Nsg19
Nsg20
I450
sg21
Nsa(dp1511
g2
Nsg3
Nsg5
Nsg6
Nsg7
Nsg9
Nsg10
Nsg11
V452 / S.-- / YPM - ---- / VIII - 1439
p1512
sg13
Nsg14
Nsg15
Nsg17
Nsg18
Nsg19
Nsg20
I451
sg21
Nsa(dp1513
g2
Nsg3
Nsg5
Nsg6
Nsg7
Nsg9
Nsg10
Nsg11
V453 / S.-- / YPM - ---- / VIII - 1439
p1514
sg13
Nsg14
Nsg15
Nsg17
Nsg18
Nsg19
Nsg20
I452
sg21
Nsa(dp1515
g2
Nsg3
Nsg5
Nsg6
Nsg7
VSK PEMENANG LOMBA KSM MTS KAB. GARUT MTSN GARUT
p1516
sg9
Nsg10
Nsg11
V454 / S.1 / YPM - 7000 / VIII - 1439
p1517
sg13
Nsg14
Nsg15
V12 Mei 2018
p1518
sg17
Nsg18
Nsg19
Nsg20
I453
sg21
Nsa(dp1519
g2
Nsg3
Nsg5
Nsg6
Nsg7
VSK PEMENANG LOMBA KSM MA KAB. GARUT MAN 1 GARUT
p1520
sg9
Nsg10
Nsg11
V455 / S.1 / YPM - 7000 / VIII - 1439
p1521
sg13
Nsg14
Nsg15
Nsg17
Nsg18
Nsg19
Nsg20
I454
sg21
Nsa(dp1522
g2
Nsg3
Nsg5
Nsg6
Nsg7
VSK PEMENANG LOMBA KSM MTS KOTA TASIKMALAYA MTSN 1 CILENDEK TASIKMALAYA
p1523
sg9
Nsg10
Nsg11
V456 / S.1 / YPM - 7000 / VIII - 1439
p1524
sg13
Nsg14
Nsg15
Nsg17
Nsg18
Nsg19
Nsg20
I455
sg21
Nsa(dp1525
g2
Nsg3
Nsg5
Nsg6
Nsg7
VSURAT KETERANGAN AKTIVIS (TAUFIKURRAHMAN AKMAL)
p1526
sg9
Nsg10
Nsg11
V457 / S.4 / YPM - 5000 / VIII - 1439
p1527
sg13
Nsg14
Nsg15
Nsg17
Nsg18
Nsg19
Nsg20
I456
sg21
Nsa(dp1528
g2
Nsg3
Nsg5
Nsg6
Nsg7
VSURAT KUASA PERPANJANGAN STNK MOTOR D 3424 JC
p1529
sg9
Nsg10
Nsg11
V458 / S.8 / YPM - D101 / VIII - 1439
p1530
sg13
Nsg14
Nsg15
V14 Mei 2018
p1531
sg17
Nsg18
Nsg19
Nsg20
I457
sg21
Nsa(dp1532
g2
Nsg3
Nsg5
Nsg6
Nsg7
VUNDANGAN PEMBINAAN HALAL
p1533
sg9
Nsg10
Nsg11
V459 / S.7 / YPM - B100 / VIII - 1439
p1534
sg13
Nsg14
Nsg15
Nsg17
Nsg18
Nsg19
Nsg20
I458
sg21
Nsa(dp1535
g2
Nsg3
Nsg5
Nsg6
Nsg7
VPERMOHONAN AKSES BEBAS INTERNET SELAMA BULAN RAMADHAN 1439
p1536
sg9
Nsg10
Nsg11
V460 / S.6 / YPM - 2100 / VIII - 1439
p1537
sg13
Nsg14
Nsg15
Nsg17
Nsg18
Nsg19
Nsg20
I459
sg21
Nsa(dp1538
g2
Nsg3
Nsg5
Nsg6
Nsg7
VSE JAM KERJA RAMADHAN 1439 H
p1539
sg9
Nsg10
Nsg11
V461 / S.3 / YPM - 1000 / VIII - 1439
p1540
sg13
Nsg14
Nsg15
Nsg17
Nsg18
Nsg19
Nsg20
I460
sg21
Nsa(dp1541
g2
Nsg3
Nsg5
Nsg6
Nsg7
VSURAT PENGANTAR JADWAL KHATIB TARAWIH & PEMBICARA IRAMA
p1542
sg9
Nsg10
Nsg11
V462 / S.10 / YPM - 1000 / VIII - 1439
p1543
sg13
Nsg14
Nsg15
V15 Mei 2018
p1544
sg17
Nsg18
g846
sg19
Nsg20
I461
sg21
Nsa(dp1545
g2
Nsg3
Nsg5
Nsg6
Nsg7
VSERTIFIKAT JUARA KARYAWAN
p1546
sg9
Nsg10
Nsg11
V463 / S.4 / YPM - 2100 / VIII - 1439
p1547
sg13
Nsg14
Nsg15
V16 Mei 2018
p1548
sg17
Nsg18
Nsg19
Nsg20
I462
sg21
Nsa(dp1549
g2
Nsg3
Nsg5
Nsg6
Nsg7
VPERJAJIAN RUSA
p1550
sg9
Nsg10
Nsg11
V464 / S.9 / YPM - 5000 / VIII - 1439
p1551
sg13
Nsg14
Nsg15
Nsg17
Nsg18
Nsg19
Nsg20
I463
sg21
Nsa(dp1552
g2
Nsg3
Nsg5
Nsg6
Nsg7
VPERJAJIAN ASRAMA SALMAN
p1553
sg9
Nsg10
Nsg11
V465 / S.9 / YPM - 5000 / VIII - 1439
p1554
sg13
Nsg14
Nsg15
Nsg17
Nsg18
Nsg19
Nsg20
I464
sg21
Nsa(dp1555
g2
Nsg3
Nsg5
Nsg6
Nsg7
VPEMBERITAHUAN PIKET PENCERAMAH TARAWIH 1439 H
p1556
sg9
Nsg10
Nsg11
V466 / S.2 / YPM - 1000 / VIII - 1439
p1557
sg13
Nsg14
Nsg15
Nsg17
Nsg18
Nsg19
Nsg20
I465
sg21
Nsa(dp1558
g2
Nsg3
Nsg5
Nsg6
Nsg7
g1177
sg9
Nsg10
Nsg11
V467 / S.2 / YPM - D101 / IX - 1439
p1559
sg13
Nsg14
Nsg15
V17 Mei 2018
p1560
sg17
Nsg18
VDIREKTUR & KEUANGAN
p1561
sg19
Nsg20
I466
sg21
Nsa(dp1562
g2
Nsg3
Nsg5
Nsg6
Nsg7
VPERMOHONAN PEMINJAMAN TAMAN GANESHA (PPA & NGABUBURIT)
p1563
sg9
Nsg10
Nsg11
V468 / S.6 / YPM - 2100 / IX - 1439
p1564
sg13
Nsg14
Nsg15
Nsg17
Nsg18
Nsg19
Nsg20
I467
sg21
Nsa(dp1565
g2
Nsg3
Nsg5
Nsg6
Nsg7
VIZIN TDK MENGIKUTI KULIAH (KEGIATAN RUSA)
p1566
sg9
Nsg10
Nsg11
V469 / S.14 / YPM - 5000 / IX - 1439
p1567
sg13
Nsg14
Nsg15
V18 Mei 2018
p1568
sg17
Nsg18
Nsg19
Nsg20
I468
sg21
Nsa(dp1569
g2
Nsg3
Nsg5
Nsg6
Nsg7
VSURAT PERMOHONAN PASPOR
p1570
sg9
Nsg10
Nsg11
V470 / S.6 / YPM - 5000 / IX - 1439
p1571
sg13
Nsg14
Nsg15
Nsg17
Nsg18
VKANTOR IMIGRASI KOTA BANDUNG
p1572
sg19
Nsg20
I469
sg21
Nsa(dp1573
g2
Nsg3
Nsg5
Nsg6
Nsg7
VPERMOHONAN PEMASANGAN BALIHO (ACARA IRAMA) RAMADHAN 1439 H
p1574
sg9
Nsg10
Nsg11
V471 / S.6 / YPM - 2100 / IX - 1439
p1575
sg13
Nsg14
Nsg15
V19 Mei 2018
p1576
sg17
Nsg18
Nsg19
Nsg20
I470
sg21
Nsa(dp1577
g2
Nsg3
Nsg5
Nsg6
Nsg7
VUCAPAN TAZIAH (ADARA TAISTA BINTI ISMET DJAMAL TAHIR - MANTU HATTA RAJASA)
p1578
sg9
Nsg10
Nsg11
V472 / S.12 / YPM - 1000 / IX - 1439
p1579
sg13
Nsg14
Nsg15
Nsg17
Nsg18
Nsg19
Nsg20
I471
sg21
Nsa(dp1580
g2
Nsg3
Nsg5
Nsg6
Nsg7
VTANGGAPAN KERJA PRAKTEK
p1581
sg9
Nsg10
Nsg11
V473 / S.16 / YPM - D100 / IX - 1439
p1582
sg13
Nsg14
Nsg15
Nsg17
Nsg18
VPRODI T. INFORMATIK STEI ITB
p1583
sg19
Nsg20
I472
sg21
Nsa(dp1584
g2
Nsg3
Nsg5
Nsg6
Nsg7
VPEMINJAMAN LAB UPI
p1585
sg9
Nsg10
Nsg11
V474 / S.6 / YPM - 7000 / IX - 1439
p1586
sg13
Nsg14
Nsg15
V21 Mei 2018
p1587
sg17
Nsg18
Nsg19
Nsg20
I473
sg21
Nsa(dp1588
g2
Nsg3
Nsg5
Nsg6
Nsg7
VSURAT IZIN TDK MENGIKUTI ACARA BEASISWA LK (RUMAH SAHABAT)
p1589
sg9
Nsg10
Nsg11
V475 / S.14 / YPM - 5000 / IX - 1439
p1590
sg13
Nsg14
Nsg15
V22 Mei 2018
p1591
sg17
Nsg18
Nsg19
Nsg20
I474
sg21
Nsa(dp1592
g2
Nsg3
Nsg5
Nsg6
Nsg7
VKERJASAMA PEMBANGUNAN RS SALMAN HOSPITAL
p1593
sg9
Nsg10
Nsg11
V476 / S.2 / YPM - C100 / IX - 1439
p1594
sg13
Nsg14
Nsg15
Nsg17
Nsg18
Nsg19
Nsg20
I475
sg21
Nsa(dp1595
g2
Nsg3
Nsg5
Nsg6
Nsg7
VSERTIFIKAT PEMBICARA (IRAMA)
p1596
sg9
Nsg10
Nsg11
V477 / S.4 / YPM - 2110 / IX - 1439
p1597
sg13
Nsg14
Nsg15
Nsg17
Nsg18
Nsg19
Nsg20
I476
sg21
Nsa(dp1598
g2
Nsg3
Nsg5
Nsg6
Nsg7
VSERTIFIKAT PESERTA (PPA)
p1599
sg9
Nsg10
Nsg11
V478 / S.4 / YPM - 2110 / IX - 1439
p1600
sg13
Nsg14
Nsg15
Nsg17
Nsg18
Nsg19
Nsg20
I477
sg21
Nsa(dp1601
g2
Nsg3
Nsg5
Nsg6
Nsg7
VSERTIFIKAT PESERTA (ADV CAMP)
p1602
sg9
Nsg10
Nsg11
V479 / S.4 / YPM - 2110 / IX - 1439
p1603
sg13
Nsg14
Nsg15
Nsg17
Nsg18
Nsg19
Nsg20
I478
sg21
Nsa(dp1604
g2
Nsg3
Nsg5
Nsg6
Nsg7
VSERTIFIKAT PESERTA (SANLAT)
p1605
sg9
Nsg10
Nsg11
V480 / S.4 / YPM - 2110 / IX - 1439
p1606
sg13
Nsg14
Nsg15
Nsg17
Nsg18
Nsg19
Nsg20
I479
sg21
Nsa(dp1607
g2
Nsg3
Nsg5
Nsg6
Nsg7
VSERTIFIKAT PESERTA (QUR'AN FESTIVAL)
p1608
sg9
Nsg10
Nsg11
V481 / S.4 / YPM - 2110 / IX - 1439
p1609
sg13
Nsg14
Nsg15
Nsg17
Nsg18
Nsg19
Nsg20
I480
sg21
Nsa(dp1610
g2
Nsg3
Nsg5
Nsg6
Nsg7
Nsg9
Nsg10
Nsg11
V482 / S.4 / YPM - 2110 / IX - 1439
p1611
sg13
Nsg14
Nsg15
Nsg17
Nsg18
Nsg19
Nsg20
I481
sg21
Nsa(dp1612
g2
Nsg3
Nsg5
Nsg6
Nsg7
Nsg9
Nsg10
Nsg11
V483 / S.4 / YPM - 2110 / IX - 1439
p1613
sg13
Nsg14
Nsg15
Nsg17
Nsg18
Nsg19
Nsg20
I482
sg21
Nsa(dp1614
g2
Nsg3
Nsg5
Nsg6
Nsg7
VEDARAN PETUNJUK MENGENAI LIBUR IDUL FITRI 1439 H
p1615
sg9
Nsg10
Nsg11
V484 / S.3 / YPM - 1000 / IX - 1439
p1616
sg13
Nsg14
Nsg15
Nsg17
Nsg18
Nsg19
Nsg20
I483
sg21
Nsa(dp1617
g2
Nsg3
Nsg5
Nsg6
Nsg7
VPENGUNDURAN DIRI PESERTA PERINTIS
p1618
sg9
Nsg10
Nsg11
V485 / S.2 / YPM - 5000 / IX - 1439
p1619
sg13
Nsg14
Nsg15
V25 Mei 2018
p1620
sg17
Nsg18
Nsg19
Nsg20
I484
sg21
Nsa(dp1621
g2
Nsg3
Nsg5
Nsg6
Nsg7
VPERINGATAN
p1622
sg9
Nsg10
Nsg11
V486 / S.2 / YPM - D101 / IX - 1439
p1623
sg13
Nsg14
Nsg15
V28 Mei 2018
p1624
sg17
Nsg18
Nsg19
Nsg20
I485
sg21
Nsa(dp1625
g2
Nsg3
Nsg5
Nsg6
Nsg7
VUNDANGAN HALAQOH KONSTITUSI
p1626
sg9
Nsg10
Nsg11
V487 / S.7 / YPM - 6000 / IX - 1439
p1627
sg13
Nsg14
Nsg15
Nsg17
Nsg18
Nsg19
Nsg20
I486
sg21
Nsa(dp1628
g2
Nsg3
Nsg5
Nsg6
Nsg7
VSPK MK RI
p1629
sg9
Nsg10
Nsg11
V488 / S.9 / YPM - 6000 / IX - 1439
p1630
sg13
Nsg14
Nsg15
Nsg17
Nsg18
Nsg19
Nsg20
I487
sg21
Nsa(dp1631
g2
Nsg3
Nsg5
Nsg6
Nsg7
VUCAPAN TAZIAH (IR. H. PALGUNADI T. SETYAWAN)
p1632
sg9
Nsg10
Nsg11
V489 / S.12 / YPM - 1000 / IX - 1439
p1633
sg13
Nsg14
Nsg15
Nsg17
Nsg18
Nsg19
Nsg20
I488
sg21
Nsa(dp1634
g2
Nsg3
Nsg5
Nsg6
Nsg7
g1413
sg9
Nsg10
Nsg11
V490 / S.4 / YPM - 4000 / IX - 1439
p1635
sg13
Nsg14
Nsg15
V30 Mei 2018
p1636
sg17
Nsg18
Nsg19
Nsg20
I489
sg21
Nsa(dp1637
g2
Nsg3
Nsg5
Nsg6
Nsg7
VTANGGAPAN PEMINJAMAN RUANG UTAMA MASJID SALMAN ITB (AKAD)
p1638
sg9
Nsg10
Nsg11
V491 / S.16 / YPM - D101 / IX - 1439
p1639
sg13
Nsg14
Nsg15
Nsg17
Nsg18
Nsg19
Nsg20
I490
sg21
Nsa(dp1640
g2
Nsg3
Nsg5
Nsg6
Nsg7
VPERMOHONAN PEMINJAMAN LAPANGAN CAMPUS CENTER ITB (SHALAT IDUL FITRI)
p1641
sg9
Nsg10
Nsg11
V492 / S.6 / YPM - 1000 / IX - 1439
p1642
sg13
Nsg14
Nsg15
Nsg17
Nsg18
Nsg19
Nsg20
I491
sg21
Nsa(dp1643
g2
Nsg3
Nsg5
Nsg6
Nsg7
g1618
sg9
Nsg10
Nsg11
V493 / S.2 / YPM - 5000 / IX - 1439
p1644
sg13
Nsg14
Nsg15
Nsg17
Nsg18
VORANG TUA
p1645
sg19
Nsg20
I492
sg21
Nsa(dp1646
g2
Nsg3
Nsg5
Nsg6
Nsg7
VUCAPAN TAZIAH (PROF. M. DAWAM RAHARDJO)
p1647
sg9
Nsg10
Nsg11
V494 / S.12 / YPM - 1000 / IX - 1439
p1648
sg13
Nsg14
Nsg15
V31 Mei 2018
p1649
sg17
Nsg18
Nsg19
Nsg20
I493
sg21
Nsa(dp1650
g2
Nsg3
Nsg5
Nsg6
Nsg7
VPERJANJIAN KERJASAMA PROGRAM WAKAF SECARA DIGITAL (PT AMMANA FINTEK SYARIAH)
p1651
sg9
Nsg10
Nsg11
V495 / S.9 / YPM - C100 / IX - 1439
p1652
sg13
Nsg14
Nsg15
V01 Juni 2018
p1653
sg17
Nsg18
Nsg19
Nsg20
I494
sg21
Nsa(dp1654
g2
Nsg3
Nsg5
Nsg6
Nsg7
VPERMOHONAN MUSHAF AL QUR'AN
p1655
sg9
Nsg10
Nsg11
V496 / S.6 / YPM - 4000 / IX - 1439
p1656
sg13
Nsg14
Nsg15
Nsg17
Nsg18
VRUMAH AMAL
p1657
sg19
Nsg20
I495
sg21
Nsa(dp1658
g2
Nsg3
Nsg5
Nsg6
Nsg7
Nsg9
Nsg10
Nsg11
V497 / S.-- / YPM - ..... / IX - 1439
p1659
sg13
Nsg14
Nsg15
Nsg17
Nsg18
Nsg19
Nsg20
I496
sg21
Nsa(dp1660
g2
Nsg3
Nsg5
Nsg6
Nsg7
VSURAT TUGAS MC HALAQOH KONSTITUSI (ABDULLAH ABDUR ROHMAN)
p1661
sg9
Nsg10
Nsg11
V498 / S.11 / YPM - 2100 / IX - 1439
p1662
sg13
Nsg14
Nsg15
V03 Juni 2018
p1663
sg17
Nsg18
Nsg19
Nsg20
I497
sg21
Nsa(dp1664
g2
Nsg3
Nsg5
Nsg6
Nsg7
VSURAT TUGAS MODERATOR HALAQOH KONSTITUSI (YEDI PURWANTO)
p1665
sg9
Nsg10
Nsg11
V499 / S.11 / YPM - 2100 / IX - 1439
p1666
sg13
Nsg14
Nsg15
Nsg17
Nsg18
Nsg19
Nsg20
I498
sg21
Nsa(dp1667
g2
Nsg3
Nsg5
Nsg6
Nsg7
VSURAT TUGAS QORI HALAQOH KONSTITUSI (SYIHABUDDIN)
p1668
sg9
Nsg10
Nsg11
V500 / S.11 / YPM - 2100 / IX - 1439
p1669
sg13
Nsg14
Nsg15
Nsg17
Nsg18
Nsg19
Nsg20
I499
sg21
Nsa(dp1670
g2
Nsg3
Nsg5
Nsg6
Nsg7
VSURAT TUGAS PANITIA HALAQOH KONSTITUSI
p1671
sg9
Nsg10
Nsg11
V501 / S.11 / YPM - 2100 / IX - 1439
p1672
sg13
Nsg14
Nsg15
Nsg17
Nsg18
Nsg19
Nsg20
I500
sg21
Nsa(dp1673
g2
Nsg3
Nsg5
Nsg6
Nsg7
VSERTIFIKAT PESERTA (RAMADHAN HIJAU)
p1674
sg9
Nsg10
Nsg11
V502 / S.4 / YPM - 2110 / IX - 1439
p1675
sg13
Nsg14
Nsg15
V04 Juni 2018
p1676
sg17
Nsg18
Nsg19
Nsg20
I501
sg21
Nsa(dp1677
g2
Nsg3
Nsg5
Nsg6
Nsg7
VSURAT PENUNJUKAN PENGURUSAN PAJAK
p1678
sg9
Nsg10
Nsg11
V503 / S.11 / YPM - D101 / IX - 1439
p1679
sg13
Nsg14
Nsg15
Nsg17
Nsg18
Nsg19
Nsg20
I502
sg21
Nsa(dp1680
g2
Nsg3
Nsg5
Nsg6
Nsg7
VSERTIFIKAT MC (RAMADHAN ON THE CAMPUS)
p1681
sg9
Nsg10
Nsg11
V504 / S.4 / YPM - 2110 / IX - 1439
p1682
sg13
Nsg14
Nsg15
Nsg17
Nsg18
Nsg19
Nsg20
I503
sg21
Nsa(dp1683
g2
Nsg3
Nsg5
Nsg6
Nsg7
VSERTIFIKAT MODERATOR (RAMADHAN ON THE CAMPUS)
p1684
sg9
Nsg10
Nsg11
V505 / S.4 / YPM - 2110 / IX - 1439
p1685
sg13
Nsg14
Nsg15
Nsg17
Nsg18
Nsg19
Nsg20
I504
sg21
Nsa(dp1686
g2
Nsg3
Nsg5
Nsg6
Nsg7
VPERMOHONAN PEMBICARA
p1687
sg9
Nsg10
Nsg11
V506 / S.6 / YPM - 7000 / IX - 1439
p1688
sg13
Nsg14
Nsg15
Nsg17
Nsg18
Nsg19
Nsg20
I505
sg21
Nsa(dp1689
g2
Nsg3
Nsg5
Nsg6
Nsg7
VSK PENERBITAN SALMAN
p1690
sg9
Nsg10
Nsg11
V507 / S.1 / YPM - 1000 / IX - 1439
p1691
sg13
Nsg14
Nsg15
V12 Juni 2018
p1692
sg17
Nsg18
Nsg19
Nsg20
I506
sg21
Nsa(dp1693
g2
Nsg3
Nsg5
Nsg6
Nsg7
VSE LIBUR PILKADA SERENTAK TAHUN 2018
p1694
sg9
Nsg10
Nsg11
V508 / S.1 / YPM - D101 / X - 1439
p1695
sg13
Nsg14
Nsg15
Nsg17
Nsg18
Nsg19
Nsg20
I507
sg21
Nsa(dp1696
g2
Nsg3
Nsg5
Nsg6
Nsg7
VSP1 (BUDI SETYOWARNO)
p1697
sg9
Nsg10
Nsg11
V509 / S.13 / YPM - D101 / X - 1439
p1698
sg13
Nsg14
Nsg15
Nsg17
Nsg18
Nsg19
Nsg20
I508
sg21
Nsa(dp1699
g2
Nsg3
Nsg5
Nsg6
Nsg7
Nsg9
Nsg10
Nsg11
V510 / S.-- / YPM - ---- / X - 1439
p1700
sg13
Nsg14
Nsg15
Nsg17
Nsg18
Nsg19
Nsg20
I509
sg21
Nsa(dp1701
g2
Nsg3
Nsg5
Nsg6
Nsg7
Nsg9
Nsg10
Nsg11
V511 / S.-- / YPM - ---- / X - 1439
p1702
sg13
Nsg14
Nsg15
Nsg17
Nsg18
Nsg19
Nsg20
I510
sg21
Nsa(dp1703
g2
Nsg3
Nsg5
Nsg6
Nsg7
Nsg9
Nsg10
Nsg11
V512 / S.-- / YPM - ---- / X - 1439
p1704
sg13
Nsg14
Nsg15
Nsg17
Nsg18
Nsg19
Nsg20
I511
sg21
Nsa(dp1705
g2
Nsg3
Nsg5
Nsg6
Nsg7
VSURAT KETERANGAN (KHIRZAN)
p1706
sg9
Nsg10
Nsg11
V513 / S.4 / YPM - 8000 / X - 1439
p1707
sg13
Nsg14
Nsg15
V25 Juni 2018
p1708
sg17
Nsg18
Nsg19
Nsg20
I512
sg21
Nsa(dp1709
g2
Nsg3
Nsg5
Nsg6
Nsg7
VSURAT KUASA PERPANJANGAN STNK MOTOR D 3958 JD
p1710
sg9
Nsg10
Nsg11
V514 / S.8 / YPM - 6000 / X - 1439
p1711
sg13
Nsg14
Nsg15
V26 Juni 2018
p1712
sg17
Nsg18
Nsg19
Nsg20
I513
sg21
Nsa(dp1713
g2
Nsg3
Nsg5
Nsg6
Nsg7
VUNDANGAN REKTOR ITB (HALAL BI HALAL MASJID SALMAN ITB)
p1714
sg9
Nsg10
Nsg11
V515 / S.7 / YPM - 1000 / X - 1439
p1715
sg13
Nsg14
Nsg15
Nsg17
Nsg18
Nsg19
Nsg20
I514
sg21
Nsa(dp1716
g2
Nsg3
Nsg5
Nsg6
Nsg7
VUNDANGAN WAKIL REKTOR ITB (HALAL BI HALAL MASJID SALMAN ITB)
p1717
sg9
Nsg10
Nsg11
V516 / S.7 / YPM - 1000 / X - 1439
p1718
sg13
Nsg14
Nsg15
Nsg17
Nsg18
VWAKIL REKTOR ITB
p1719
sg19
Nsg20
I515
sg21
Nsa(dp1720
g2
Nsg3
Nsg5
Nsg6
Nsg7
VUNDANGAN DEKANAT ITB (HALAL BI HALAL MASJID SALMAN ITB)
p1721
sg9
Nsg10
Nsg11
V517 / S.7 / YPM - 1000 / X - 1439
p1722
sg13
Nsg14
Nsg15
Nsg17
Nsg18
VDEKANAT ITB
p1723
sg19
Nsg20
I516
sg21
Nsa(dp1724
g2
Nsg3
Nsg5
Nsg6
Nsg7
VSERTIFIKAT PELATIHAN BHS. INGGRIS (ESCO)
p1725
sg9
Nsg10
Nsg11
V518 / S.4 / YPM - 5000 / X - 1439
p1726
sg13
Nsg14
Nsg15
V28 Juni 2018
p1727
sg17
Nsg18
Nsg19
Nsg20
I517
sg21
Nsa(dp1728
g2
Nsg3
Nsg5
Nsg6
Nsg7
VPENGANTAR PROPOSAL HALAL BI HALAL
p1729
sg9
Nsg10
Nsg11
V519 / S.10 / YPM - 2100 / X - 1439
p1730
sg13
Nsg14
Nsg15
Nsg17
Nsg18
Nsg19
Nsg20
I518
sg21
Nsa(dp1731
g2
Nsg3
Nsg5
Nsg6
Nsg7
VPENGAJUAN ISBN KHUTBAH JUMAT 2015
p1732
sg9
Nsg10
Nsg11
V520 / S.6 / YPM - 6000 / X - 1439
p1733
sg13
Nsg14
Nsg15
Nsg17
Nsg18
Nsg19
Nsg20
I519
sg21
Nsa(dp1734
g2
Nsg3
Nsg5
Nsg6
Nsg7
VPENGANTAR KIRIMAN BUKU ISBN
p1735
sg9
Nsg10
Nsg11
V521 / S.10 / YPM - 6000 / X - 1439
p1736
sg13
Nsg14
Nsg15
Nsg17
Nsg18
Nsg19
Nsg20
I520
sg21
Nsa(dp1737
g2
Nsg3
Nsg5
Nsg6
Nsg7
g452
sg9
Nsg10
Nsg11
V522 / S.7 / YPM - 0000 / X - 1439
p1738
sg13
Nsg14
Nsg15
Nsg17
Nsg18
Nsg19
Nsg20
I521
sg21
Nsa(dp1739
g2
Nsg3
Nsg5
Nsg6
Nsg7
g1396
sg9
Nsg10
Nsg11
V523 / S.6 / YPM - 5000 / X - 1439
p1740
sg13
Nsg14
Nsg15
V29 Juni 2018
p1741
sg17
Nsg18
VUSTADZ IBROHIM ELHAQ
p1742
sg19
Nsg20
I522
sg21
Nsa(dp1743
g2
Nsg3
Nsg5
Nsg6
Nsg7
VUNDANGAN VVIP (HALAL BI HALAL MASJID SALMAN ITB)
p1744
sg9
Nsg10
Nsg11
V524 / S.7 / YPM - 1000 / X - 1439
p1745
sg13
Nsg14
Nsg15
V30 Juni 2018
p1746
sg17
Nsg18
Nsg19
Nsg20
I523
sg21
Nsa(dp1747
g2
Nsg3
Nsg5
Nsg6
Nsg7
Nsg9
Nsg10
Nsg11
V525 / S.- / YPM - ---- / X - 1439
p1748
sg13
Nsg14
Nsg15
Nsg17
Nsg18
Nsg19
Nsg20
I524
sg21
Nsa(dp1749
g2
Nsg3
Nsg5
Nsg6
Nsg7
Nsg9
Nsg10
Nsg11
V526 / S.- / YPM - ---- / X - 1439
p1750
sg13
Nsg14
Nsg15
Nsg17
Nsg18
Nsg19
Nsg20
I525
sg21
Nsa(dp1751
g2
Nsg3
Nsg5
Nsg6
Nsg7
VTANGGAPAN PERMOHONAN AUDIENSI PENEMPATAN BOOTH LUMENS KOPI MASJID
p1752
sg9
Nsg10
Nsg11
V527 / S.16 / YPM - 2300 / X - 1439
p1753
sg13
Nsg14
Nsg15
V02 Juli 2018
p1754
sg17
Nsg18
Nsg19
Nsg20
I526
sg21
Nsa(dp1755
g2
Nsg3
Nsg5
Nsg6
Nsg7
VPERMOHONAN DATABASE
p1756
sg9
Nsg10
Nsg11
V528 / S.6 / YPM - 5000 / X - 1439
p1757
sg13
Nsg14
Nsg15
Nsg17
Nsg18
g1657
sg19
Nsg20
I527
sg21
Nsa(dp1758
g2
Nsg3
Nsg5
Nsg6
Nsg7
VPERMOHONAN PEMINJAMAN TAMAN GANESHA (PRAKTEK MANASIK HAJI)
p1759
sg9
Nsg10
Nsg11
V529 / S.6 / YPM - 4400 / X - 1439
p1760
sg13
Nsg14
Nsg15
g1663
sg17
Nsg18
Nsg19
Nsg20
I528
sg21
Nsa(dp1761
g2
Nsg3
Nsg5
Nsg6
Nsg7
VUNDANGAN MEMBERIKAN SAMBUTAN (SYUKURAN WISUDA JULI 2018)
p1762
sg9
Nsg10
Nsg11
V530 / S.7 / YPM - 5000 / X - 1439
p1763
sg13
Nsg14
Nsg15
Nsg17
Nsg18
g846
sg19
Nsg20
I529
sg21
Nsa(dp1764
g2
Nsg3
Nsg5
Nsg6
Nsg7
VSERTIFIKAT JSC SALMAN FILM
p1765
sg9
Nsg10
Nsg11
V531 / S.4 / YPM - 6300 / X - 1439
p1766
sg13
Nsg14
Nsg15
g1676
sg17
Nsg18
Nsg19
Nsg20
I530
sg21
Nsa(dp1767
g2
Nsg3
Nsg5
Nsg6
Nsg7
VSURAT IJIN KUNJUNGAN
p1768
sg9
Nsg10
Nsg11
V532 / S.6 / YPM - C100 / X - 1439
p1769
sg13
Nsg14
Nsg15
Nsg17
Nsg18
VPRODI PLANOLOGI
p1770
sg19
Nsg20
I531
sg21
Nsa(dp1771
g2
Nsg3
Nsg5
Nsg6
Nsg7
g1768
sg9
Nsg10
Nsg11
V533 / S.6 / YPM - C100 / X - 1439
p1772
sg13
Nsg14
Nsg15
V06 Juli 2018
p1773
sg17
Nsg18
VKEPALA BANDUNG PLANING GALERY
p1774
sg19
Nsg20
I532
sg21
Nsa(dp1775
g2
Nsg3
Nsg5
Nsg6
Nsg7
VSURAT KETERANGAN BEKERJA (ALFIYAH NUR FITRIANI)
p1776
sg9
Nsg10
Nsg11
V534 / S.4 / YPM - D101 / X - 1439
p1777
sg13
Nsg14
Nsg15
Nsg17
Nsg18
Nsg19
Nsg20
I533
sg21
Nsa(dp1778
g2
Nsg3
Nsg5
Nsg6
Nsg7
VPERMOHONAN NARASUMBER GSJN (AGUSTUS)
p1779
sg9
Nsg10
Nsg11
V535 / S.6 / YPM - 5000 / X - 1439
p1780
sg13
Nsg14
Nsg15
Nsg17
Nsg18
Nsg19
Nsg20
I534
sg21
Nsa(dp1781
g2
Nsg3
Nsg5
Nsg6
Nsg7
VPERMOHONAN NARASUMBER GSJN (SEPTEMBER)
p1782
sg9
Nsg10
Nsg11
V536 / S.6 / YPM - 5000 / X - 1439
p1783
sg13
Nsg14
Nsg15
Nsg17
Nsg18
Nsg19
Nsg20
I535
sg21
Nsa(dp1784
g2
Nsg3
Nsg5
Nsg6
Nsg7
VLETTER OF INVITATION PESERTA SPECTRA
p1785
sg9
Nsg10
Nsg11
V537 / S.14 / YPM - 5000 / X - 1439
p1786
sg13
Nsg14
Nsg15
V07 Juli 2018
p1787
sg17
Nsg18
Nsg19
Nsg20
I536
sg21
Nsa(dp1788
g2
Nsg3
Nsg5
Nsg6
Nsg7
VPERMOHONAN MEMBUKA ACARA PESANTREN LIBURAN (RIDWAN KAMIL)
p1789
sg9
Nsg10
Nsg11
V538 / S.6 / YPM - C100 / X - 1439
p1790
sg13
Nsg14
Nsg15
Nsg17
Nsg18
Nsg19
Nsg20
I537
sg21
Nsa(dp1791
g2
Nsg3
Nsg5
Nsg6
Nsg7
VSERTIFIKAT BAHASA INGGRIS (EXPERIENCE CLASS)
p1792
sg9
Nsg10
Nsg11
V539 / S.4 / YPM - 5000 / X - 1439
p1793
sg13
Nsg14
Nsg15
V09 Juli 2018
p1794
sg17
Nsg18
Nsg19
Nsg20
I538
sg21
Nsa(dp1795
g2
Nsg3
Nsg5
Nsg6
Nsg7
VHONORARIUM KOMISARIS BPRS AL SALAAM
p1796
sg9
Nsg10
Nsg11
V540 / S.6 / YPM - 1000 / X - 1439
p1797
sg13
Nsg14
Nsg15
V11 Juli 2018
p1798
sg17
Nsg18
Nsg19
Nsg20
I539
sg21
Nsa(dp1799
g2
Nsg3
Nsg5
Nsg6
Nsg7
VPERMOHONAN PEMBICARA SYUKURAN WISUDA
p1800
sg9
Nsg10
Nsg11
V541 / S.6 / YPM - 5000 / X - 1439
p1801
sg13
Nsg14
Nsg15
Nsg17
Nsg18
Nsg19
Nsg20
I540
sg21
Nsa(dp1802
g2
Nsg3
Nsg5
Nsg6
Nsg7
VPERMOHONAN PEMATERI JULEHA
p1803
sg9
Nsg10
Nsg11
V542 / S.6 / YPM - B100 / X - 1439
p1804
sg13
Nsg14
Nsg15
Nsg17
Nsg18
Nsg19
Nsg20
I541
sg21
Nsa(dp1805
g2
Nsg3
Nsg5
Nsg6
Nsg7
VSPK GOPAY
p1806
sg9
Nsg10
Nsg11
V543 / S.9 / YPM - 1000 / X - 1439
p1807
sg13
Nsg14
Nsg15
V12 Juli 2018
p1808
sg17
Nsg18
Nsg19
Nsg20
I542
sg21
Nsa(dp1809
g2
Nsg3
Nsg5
Nsg6
Nsg7
VSURAT IZIN TDK IKUT KEGIATAN OSPEK JURUSAN (HALAL BIHALAL)
p1810
sg9
Nsg10
Nsg11
V544 / S.14 / YPM - 5000 / X - 1439
p1811
sg13
Nsg14
Nsg15
Nsg17
Nsg18
Nsg19
Nsg20
I543
sg21
Nsa(dp1812
g2
Nsg3
Nsg5
Nsg6
Nsg7
VSURAT IZIN TDK IKUT KEGIATAN OSPEK JURUSAN
p1813
sg9
Nsg10
Nsg11
V545 / S.14 / YPM - 5000 / X - 1439
p1814
sg13
Nsg14
Nsg15
Nsg17
Nsg18
Nsg19
Nsg20
I544
sg21
Nsa(dp1815
g2
Nsg3
g23
sg5
Nsg6
Nsg7
VSURAT TUGAS SOSIALISASI UJI KOMPETENSI AUDITOR HALAL
p1816
sg9
Nsg10
Nsg11
V546 / S.11 / YPM - B100 / XI - 1439
p1817
sg13
Nsg14
Nsg15
V16 Juli 2018
p1818
sg17
Nsg18
Nsg19
Nsg20
I545
sg21
Nsa(dp1819
g2
Nsg3
g862
sg5
Nsg6
Nsg7
g1816
sg9
Nsg10
Nsg11
V547 / S.11 / YPM - B100 / XI - 1439
p1820
sg13
Nsg14
Nsg15
Nsg17
Nsg18
Nsg19
Nsg20
I546
sg21
Nsa(dp1821
g2
Nsg3
Nsg5
Nsg6
Nsg7
VSK TIM FUND RAISING RS SALMAN HOSPITAL
p1822
sg9
Nsg10
Nsg11
V548 / S.1 / YPM - 0000 / XI - 1439
p1823
sg13
Nsg14
Nsg15
Nsg17
Nsg18
Nsg19
Nsg20
I547
sg21
Nsa(dp1824
g2
Nsg3
Nsg5
Nsg6
Nsg7
VSURAT IZIN TDK IKUT KEGIATAN KAMPUS (SYUKURAN WISUDA)
p1825
sg9
Nsg10
Nsg11
V549 / S.14 / YPM - 5000 / XI - 1439
p1826
sg13
Nsg14
Nsg15
V17 Juli 2018
p1827
sg17
Nsg18
Nsg19
Nsg20
I548
sg21
Nsa(dp1828
g2
Nsg3
Nsg5
Nsg6
Nsg7
VSURAT KUASA BMI
p1829
sg9
Nsg10
Nsg11
V550 / S.8 / YPM - 1000 / XI - 1439
p1830
sg13
Nsg14
Nsg15
Nsg17
Nsg18
Nsg19
Nsg20
I549
sg21
Nsa(dp1831
g2
Nsg3
Nsg5
Nsg6
Nsg7
VSERTIFIKAT WISUDAWAN BERPRESTASI
p1832
sg9
Nsg10
Nsg11
V551 / S.4 / YPM - 5000 / XI - 1439
p1833
sg13
Nsg14
Nsg15
Nsg17
Nsg18
Nsg19
Nsg20
I550
sg21
Nsa(dp1834
g2
Nsg3
Nsg5
Nsg6
Nsg7
g1832
sg9
Nsg10
Nsg11
V552 / S.4 / YPM - 5000 / XI - 1439
p1835
sg13
Nsg14
Nsg15
Nsg17
Nsg18
Nsg19
Nsg20
I551
sg21
Nsa(dp1836
g2
Nsg3
Nsg5
Nsg6
Nsg7
g1832
sg9
Nsg10
Nsg11
V553 / S.4 / YPM - 5000 / XI - 1439
p1837
sg13
Nsg14
Nsg15
Nsg17
Nsg18
Nsg19
Nsg20
I552
sg21
Nsa(dp1838
g2
Nsg3
Nsg5
Nsg6
Nsg7
g1832
sg9
Nsg10
Nsg11
V554 / S.4 / YPM - 5000 / XI - 1439
p1839
sg13
Nsg14
Nsg15
Nsg17
Nsg18
Nsg19
Nsg20
I553
sg21
Nsa(dp1840
g2
Nsg3
Nsg5
Nsg6
Nsg7
g1832
sg9
Nsg10
Nsg11
V555 / S.4 / YPM - 5000 / XI - 1439
p1841
sg13
Nsg14
Nsg15
Nsg17
Nsg18
Nsg19
Nsg20
I554
sg21
Nsa(dp1842
g2
Nsg3
Nsg5
Nsg6
Nsg7
g1832
sg9
Nsg10
Nsg11
V556 / S.4 / YPM - 5000 / XI - 1439
p1843
sg13
Nsg14
Nsg15
Nsg17
Nsg18
Nsg19
Nsg20
I555
sg21
Nsa(dp1844
g2
Nsg3
Nsg5
Nsg6
Nsg7
g1832
sg9
Nsg10
Nsg11
V557 / S.4 / YPM - 5000 / XI - 1439
p1845
sg13
Nsg14
Nsg15
Nsg17
Nsg18
Nsg19
Nsg20
I556
sg21
Nsa(dp1846
g2
Nsg3
Nsg5
Nsg6
Nsg7
g1832
sg9
Nsg10
Nsg11
V558 / S.4 / YPM - 5000 / XI - 1439
p1847
sg13
Nsg14
Nsg15
Nsg17
Nsg18
Nsg19
Nsg20
I557
sg21
Nsa(dp1848
g2
Nsg3
Nsg5
Nsg6
Nsg7
g1832
sg9
Nsg10
Nsg11
V559 / S.4 / YPM - 5000 / XI - 1439
p1849
sg13
Nsg14
Nsg15
Nsg17
Nsg18
Nsg19
Nsg20
I558
sg21
Nsa(dp1850
g2
Nsg3
Nsg5
Nsg6
Nsg7
g1832
sg9
Nsg10
Nsg11
V560 / S.4 / YPM - 5000 / XI - 1439
p1851
sg13
Nsg14
Nsg15
Nsg17
Nsg18
Nsg19
Nsg20
I559
sg21
Nsa(dp1852
g2
Nsg3
Nsg5
Nsg6
Nsg7
g1832
sg9
Nsg10
Nsg11
V561 / S.4 / YPM - 5000 / XI - 1439
p1853
sg13
Nsg14
Nsg15
Nsg17
Nsg18
Nsg19
Nsg20
I560
sg21
Nsa(dp1854
g2
Nsg3
Nsg5
Nsg6
Nsg7
g1832
sg9
Nsg10
Nsg11
V562 / S.4 / YPM - 5000 / XI - 1439
p1855
sg13
Nsg14
Nsg15
Nsg17
Nsg18
Nsg19
Nsg20
I561
sg21
Nsa(dp1856
g2
Nsg3
Nsg5
Nsg6
Nsg7
VSERTIFIKAT PEMBICARA SYUKURAN WISUDA JULI
p1857
sg9
Nsg10
Nsg11
V563 / S.4 / YPM - 5000 / XI - 1439
p1858
sg13
Nsg14
Nsg15
Nsg17
Nsg18
Nsg19
Nsg20
I562
sg21
Nsa(dp1859
g2
Nsg3
Nsg5
Nsg6
Nsg7
g1857
sg9
Nsg10
Nsg11
V564 / S.4 / YPM - 5000 / XI - 1439
p1860
sg13
Nsg14
Nsg15
Nsg17
Nsg18
Nsg19
Nsg20
I563
sg21
Nsa(dp1861
g2
Nsg3
Nsg5
Nsg6
Nsg7
VUCAPAN TERIMA KASIH (SOUND SYSTEM)
p1862
sg9
Nsg10
Nsg11
V565 / S.12 / YPM - 1000 / XI - 1439
p1863
sg13
Nsg14
Nsg15
Nsg17
Nsg18
VWAKIL KETUM DMI / WAKAPOLRI
p1864
sg19
Nsg20
I564
sg21
Nsa(dp1865
g2
Nsg3
Nsg5
Nsg6
Nsg7
VSURAT IZIN KEGIATAN (SPECTRA)
p1866
sg9
Nsg10
Nsg11
V566 / S.6 / YPM - 5000 / XI - 1439
p1867
sg13
Nsg14
Nsg15
Nsg17
Nsg18
VDKM / RT / RW
p1868
sg19
Nsg20
I565
sg21
Nsa(dp1869
g2
Nsg3
Nsg5
Nsg6
Nsg7
VSURAT IZIN MENGIKUTI KEGIATAN (SPECTRA)
p1870
sg9
Nsg10
Nsg11
V567 / S.14 / YPM - 5000 / XI - 1439
p1871
sg13
Nsg14
Nsg15
Nsg17
Nsg18
VUNIVERSITAS
p1872
sg19
Nsg20
I566
sg21
Nsa(dp1873
g2
Nsg3
Nsg5
Nsg6
Nsg7
VSURAT SPONSOR FILM
p1874
sg9
Nsg10
Nsg11
V568 / S.6 / YPM - 6300 / XI - 1439
p1875
sg13
Nsg14
Nsg15
Nsg17
Nsg18
VEMBASSY OF UNITED KINGDOM
p1876
sg19
Nsg20
I567
sg21
Nsa(dp1877
g2
Nsg3
Nsg5
Nsg6
Nsg7
VPERMOHONAN SURAT REFERENSI BANK
p1878
sg9
Nsg10
Nsg11
V569 / S.6 / YPM - 6300 / XI - 1439
p1879
sg13
Nsg14
Nsg15
Nsg17
Nsg18
Nsg19
Nsg20
I568
sg21
Nsa(dp1880
g2
Nsg3
Nsg5
Nsg6
Nsg7
g164
sg9
Nsg10
Nsg11
V570 / S.7 / YPM - 0000 / XI - 1439
p1881
sg13
Nsg14
Nsg15
Nsg17
Nsg18
Nsg19
Nsg20
I569
sg21
Nsa(dp1882
g2
Nsg3
Nsg5
Nsg6
Nsg7
VSURAT SPONSOR FILM-1
p1883
sg9
Nsg10
Nsg11
V571 / S.6 / YPM - 6300 / XI - 1439
p1884
sg13
Nsg14
Nsg15
Nsg17
Nsg18
Nsg19
Nsg20
I570
sg21
Nsa(dp1885
g2
Nsg3
Nsg5
Nsg6
Nsg7
VSERTIFIKAT KHUSNUL HOTIMAH
p1886
sg9
Nsg10
Nsg11
V572 / S.4 / YPM - 7000 / XI - 1439
p1887
sg13
Nsg14
Nsg15
V19 Juli 2018
p1888
sg17
Nsg18
Nsg19
Nsg20
I571
sg21
Nsa(dp1889
g2
Nsg3
Nsg5
Nsg6
Nsg7
g1886
sg9
Nsg10
Nsg11
V573 / S.4 / YPM - 7000 / XI - 1439
p1890
sg13
Nsg14
Nsg15
Nsg17
Nsg18
Nsg19
Nsg20
I572
sg21
Nsa(dp1891
g2
Nsg3
Nsg5
Nsg6
Nsg7
VSURAT KUASA PUSLITBANG FILM
p1892
sg9
Nsg10
Nsg11
V574 / S.8 / YPM - 1000 / XI - 1439
p1893
sg13
Nsg14
Nsg15
V20 Juli 2018
p1894
sg17
Nsg18
Nsg19
Nsg20
I573
sg21
Nsa(dp1895
g2
Nsg3
Nsg5
Nsg6
Nsg7
VSERTIFIKAT IKRAR ISLAM (A.A ISTRI INTAN PERMATA SARI W.A)
p1896
sg9
Nsg10
Nsg11
V575 / S.4 / YPM - 4000 / XI - 1439
p1897
sg13
Nsg14
Nsg15
Nsg17
Nsg18
Nsg19
Nsg20
I574
sg21
Nsa(dp1898
g2
Nsg3
Nsg5
Nsg6
Nsg7
VPERJANJIAN TEMPAT TINGGAL RUMAH SAHABAT
p1899
sg9
Nsg10
Nsg11
V576 / S.9 / YPM - 5000 / XI - 1439
p1900
sg13
Nsg14
Nsg15
Nsg17
Nsg18
Nsg19
Nsg20
I575
sg21
Nsa(dp1901
g2
Nsg3
Nsg5
Nsg6
Nsg7
g1899
sg9
Nsg10
Nsg11
V577 / S.9 / YPM - 5000 / XI - 1439
p1902
sg13
Nsg14
Nsg15
Nsg17
Nsg18
Nsg19
Nsg20
I576
sg21
Nsa(dp1903
g2
Nsg3
Nsg5
Nsg6
Nsg7
VSERTIFIKAT SPECTRA 2.0
p1904
sg9
Nsg10
Nsg11
V578 / S.4 / YPM - 5000 / XI - 1439
p1905
sg13
Nsg14
Nsg15
V23 Juli 2018
p1906
sg17
Nsg18
Nsg19
Nsg20
I577
sg21
Nsa(dp1907
g2
Nsg3
Nsg5
Nsg6
Nsg7
VPERMOHONAN PEMINJAMAN TEMPAT (KUMPUL PERDANA KK BMKA)
p1908
sg9
Nsg10
Nsg11
V579 / S.6 / YPM - 5000 / XI - 1439
p1909
sg13
Nsg14
Nsg15
Nsg17
Nsg18
VDKM MASJID MAAIM MASKUUB PDAM TIRTAWENING
p1910
sg19
Nsg20
I578
sg21
Nsa(dp1911
g2
Nsg3
Nsg5
Nsg6
Nsg7
VSE PEMAKAIAN IDENTITAS KARYAWAN
p1912
sg9
Nsg10
Nsg11
V580 / S.3 / YPM - D101 / XI - 1439
p1913
sg13
Nsg14
Nsg15
Nsg17
Nsg18
Nsg19
Nsg20
I579
sg21
Nsa(dp1914
g2
Nsg3
Nsg5
Nsg6
Nsg7
VBERITA ACARA SERAH TERIMA (SEWA HAK TAYANG FILM 2018)
p1915
sg9
Nsg10
Nsg11
V581 / S.4 / YPM - 6300 / XI - 1439
p1916
sg13
Nsg14
Nsg15
Nsg17
Nsg18
Nsg19
Nsg20
I580
sg21
Nsa(dp1917
g2
Nsg3
Nsg5
Nsg6
Nsg7
Nsg9
Nsg10
Nsg11
V582 / S.- / YPM - ---- / XI - 1439
p1918
sg13
Nsg14
Nsg15
Nsg17
Nsg18
Nsg19
Nsg20
I581
sg21
Nsa(dp1919
g2
Nsg3
Nsg5
Nsg6
Nsg7
VSERTIFIKAT SPN 33
p1920
sg9
Nsg10
Nsg11
V583 / S.4 / YPM - 4000 / XI - 1439
p1921
sg13
Nsg14
Nsg15
Nsg17
Nsg18
Nsg19
Nsg20
I582
sg21
Nsa(dp1922
g2
Nsg3
Nsg5
Nsg6
Nsg7
VSERTIFIKAT BHS ARAB 28
p1923
sg9
Nsg10
Nsg11
V584 / S.4 / YPM - 4000 / XI - 1439
p1924
sg13
Nsg14
Nsg15
Nsg17
Nsg18
Nsg19
Nsg20
I583
sg21
Nsa(dp1925
g2
Nsg3
Nsg5
Nsg6
Nsg7
VPERMOHONAN PERUBAHAN TANDA TANGAN
p1926
sg9
Nsg10
Nsg11
V585 / S.6 / YPM - C100 / XI - 1439
p1927
sg13
Nsg14
Nsg15
Nsg17
Nsg18
VBNI SYARIAH BUAH BATU
p1928
sg19
Nsg20
I584
sg21
Nsa(dp1929
g2
Nsg3
Nsg5
Nsg6
Nsg7
g1926
sg9
Nsg10
Nsg11
V586 / S.6 / YPM - C100 / XI - 1439
p1930
sg13
Nsg14
Nsg15
Nsg17
Nsg18
VBCA SYARIAH DAGO
p1931
sg19
Nsg20
I585
sg21
Nsa(dp1932
g2
Nsg3
Nsg5
Nsg6
Nsg7
g1926
sg9
Nsg10
Nsg11
V587 / S.6 / YPM - C100 / XI - 1439
p1933
sg13
Nsg14
Nsg15
Nsg17
Nsg18
VBSM AHMAD YANI
p1934
sg19
Nsg20
I586
sg21
Nsa(dp1935
g2
Nsg3
Nsg5
Nsg6
Nsg7
g1926
sg9
Nsg10
Nsg11
V588 / S.6 / YPM - C100 / XI - 1439
p1936
sg13
Nsg14
Nsg15
Nsg17
Nsg18
g249
sg19
Nsg20
I587
sg21
Nsa(dp1937
g2
Nsg3
Nsg5
Nsg6
Nsg7
g1926
sg9
Nsg10
Nsg11
V589 / S.6 / YPM - C100 / XI - 1439
p1938
sg13
Nsg14
Nsg15
Nsg17
Nsg18
VBNI
p1939
sg19
Nsg20
I588
sg21
Nsa(dp1940
g2
Nsg3
Nsg5
Nsg6
Nsg7
g1926
sg9
Nsg10
Nsg11
V590 / S.6 / YPM - C100 / XI - 1439
p1941
sg13
Nsg14
Nsg15
Nsg17
Nsg18
VBCA
p1942
sg19
Nsg20
I589
sg21
Nsa(dp1943
g2
Nsg3
Nsg5
Nsg6
Nsg7
g1926
sg9
Nsg10
Nsg11
V591 / S.6 / YPM - C100 / XI - 1439
p1944
sg13
Nsg14
Nsg15
Nsg17
Nsg18
VBANK MANDIRI
p1945
sg19
Nsg20
I590
sg21
Nsa(dp1946
g2
Nsg3
Nsg5
Nsg6
Nsg7
VSURAT TUGAS PESERTA PELATIHAN PENYEMBELIHAN
p1947
sg9
Nsg10
Nsg11
V592 / S.11 / YPM - 4000 / XI - 1439
p1948
sg13
Nsg14
Nsg15
Nsg17
Nsg18
Nsg19
Nsg20
I591
sg21
Nsa(dp1949
g2
Nsg3
Nsg5
Nsg6
Nsg7
VPERMOHONAN PEMINJAMAN TEMPAT (RAPAT KERJA TERPUSAT)
p1950
sg9
Nsg10
Nsg11
V593 / S.6 / YPM - 5000 / XI - 1439
p1951
sg13
Nsg14
Nsg15
V25 Juli 2018
p1952
sg17
Nsg18
g1910
sg19
Nsg20
I592
sg21
Nsa(dp1953
g2
Nsg3
Nsg5
Nsg6
Nsg7
VPERMOHONAN DATA KAB. BANDUNG DALAM ANGKA 2015
p1954
sg9
Nsg10
Nsg11
V594 / S.6 / YPM - C100 / XI - 1439
p1955
sg13
Nsg14
Nsg15
Nsg17
Nsg18
VBADAN STATISTIK KAB. BANDUNG
p1956
sg19
Nsg20
I593
sg21
Nsa(dp1957
g2
Nsg3
Nsg5
Nsg6
Nsg7
VSURAT KETERANGAN KERJA (TIAN SUMARNA - NPWP)
p1958
sg9
Nsg10
Nsg11
V595 / S.64 / YPM - 2100 / XI - 1439
p1959
sg13
Nsg14
Nsg15
V26 Juli 2018
p1960
sg17
Nsg18
Nsg19
Nsg20
I594
sg21
Nsa(dp1961
g2
Nsg3
Nsg5
Nsg6
Nsg7
VSURAT PERJANJIAN RUMAH SAHABAT MUDA
p1962
sg9
Nsg10
Nsg11
V596 / S.9 / YPM - 5000 / XI - 1439
p1963
sg13
Nsg14
Nsg15
Nsg17
Nsg18
Nsg19
Nsg20
I595
sg21
Nsa(dp1964
g2
Nsg3
g567
sg5
Nsg6
Nsg7
VRAPAT RS SALMAN HOSPITAL
p1965
sg9
Nsg10
Nsg11
V597 / S.9 / YPM - 0000 / XI - 1439
p1966
sg13
Nsg14
Nsg15
Nsg17
Nsg18
Nsg19
Nsg20
I596
sg21
Nsa(dp1967
g2
Nsg3
g23
sg5
Nsg6
Nsg7
VSURAT PERJANJIAN KERJA WAKTU TERTENTU (ALFIYAH NURFITRIANI)
p1968
sg9
Nsg10
Nsg11
V598 / S.9 / YPM - 1000 / XI - 1439
p1969
sg13
Nsg14
Nsg15
Nsg17
Nsg18
Nsg19
Nsg20
I597
sg21
Nsa(dp1970
g2
Nsg3
g23
sg5
Nsg6
Nsg7
VSURAT PERJANJIAN KERJA WAKTU TERTENTU (PEBRIANI RIZKI ALI)
p1971
sg9
Nsg10
Nsg11
V599 / S.9 / YPM - 1000 / XI - 1439
p1972
sg13
Nsg14
Nsg15
Nsg17
Nsg18
Nsg19
Nsg20
I598
sg21
Nsa(dp1973
g2
Nsg3
g23
sg5
Nsg6
Nsg7
VSURAT PERJANJIAN KERJA WAKTU TERTENTU (ATIN DWI CAHYA)
p1974
sg9
Nsg10
Nsg11
V600 / S.9 / YPM - 1000 / XI - 1439
p1975
sg13
Nsg14
Nsg15
Nsg17
Nsg18
Nsg19
Nsg20
I599
sg21
Nsa(dp1976
g2
Nsg3
g23
sg5
Nsg6
Nsg7
VSURAT PERJANJIAN KERJA WAKTU TERTENTU (JAM'AH HALID)
p1977
sg9
Nsg10
Nsg11
V601 / S.9 / YPM - 1000 / XI - 1439
p1978
sg13
Nsg14
Nsg15
Nsg17
Nsg18
Nsg19
Nsg20
I600
sg21
Nsa(dp1979
g2
Nsg3
g23
sg5
Nsg6
Nsg7
VSURAT PERJANJIAN KERJA WAKTU TERTENTU (DEDE RIDWAN)
p1980
sg9
Nsg10
Nsg11
V602 / S.9 / YPM - 1000 / XI - 1439
p1981
sg13
Nsg14
Nsg15
Nsg17
Nsg18
Nsg19
Nsg20
I601
sg21
Nsa(dp1982
g2
Nsg3
g23
sg5
Nsg6
Nsg7
VSURAT PERJANJIAN KERJA WAKTU TERTENTU (PALUPI)
p1983
sg9
Nsg10
Nsg11
V603 / S.9 / YPM - 1000 / XI - 1439
p1984
sg13
Nsg14
Nsg15
Nsg17
Nsg18
Nsg19
Nsg20
I602
sg21
Nsa(dp1985
g2
Nsg3
g23
sg5
Nsg6
Nsg7
VSURAT PERJANJIAN KERJA WAKTU TERTENTU (LUTHFIE MAULA ALFIANTO)
p1986
sg9
Nsg10
Nsg11
V604 / S.9 / YPM - 1000 / XI - 1439
p1987
sg13
Nsg14
Nsg15
Nsg17
Nsg18
Nsg19
Nsg20
I603
sg21
Nsa(dp1988
g2
Nsg3
g23
sg5
Nsg6
Nsg7
VSURAT PERJANJIAN KERJA WAKTU TERTENTU (SYACHRIAL)
p1989
sg9
Nsg10
Nsg11
V605 / S.9 / YPM - 1000 / XI - 1439
p1990
sg13
Nsg14
Nsg15
Nsg17
Nsg18
Nsg19
Nsg20
I604
sg21
Nsa(dp1991
g2
Nsg3
g23
sg5
Nsg6
Nsg7
VSURAT PERJANJIAN KERJA WAKTU TERTENTU (ASA AYAZIDA AUNU ROBBY)
p1992
sg9
Nsg10
Nsg11
V606 / S.9 / YPM - 1000 / XI - 1439
p1993
sg13
Nsg14
Nsg15
Nsg17
Nsg18
Nsg19
Nsg20
I605
sg21
Nsa(dp1994
g2
Nsg3
VIYAN NURDIN
p1995
sg5
Nsg6
Nsg7
VSE PELATIHAN DAN PENGEMBANGAN KARYAWAN SALMAN ITB
p1996
sg9
Nsg10
Nsg11
V607 / S.3 / YPM - D101 / XI - 1439
p1997
sg13
Nsg14
Nsg15
V27 Juli 2018
p1998
sg17
Nsg18
Nsg19
Nsg20
I606
sg21
Nsa(dp1999
g2
Nsg3
g1995
sg5
Nsg6
Nsg7
VMIGRASI PERANGKAT DAN PENURUNAN TOWER
p2000
sg9
Nsg10
Nsg11
V608 / S.3 / YPM - D101 / XI - 1439
p2001
sg13
Nsg14
Nsg15
Nsg17
Nsg18
Nsg19
Nsg20
I607
sg21
Nsa(dp2002
g2
Nsg3
g61
sg5
Nsg6
Nsg7
VPERMOHONAN PENGAWALAN VOORIJDER
p2003
sg9
Nsg10
Nsg11
V609 / S.6 / YPM - 4400 / XI - 1439
p2004
sg13
Nsg14
Nsg15
V28 Juli 2018
p2005
sg17
Nsg18
VKAPOLSEK COBLONG
p2006
sg19
Nsg20
I608
sg21
Nsa(dp2007
g2
Nsg3
g23
sg5
Nsg6
Nsg7
VPERMOHONAN AUDIENSI (PROGRES RS SALMAN HOSPITAL)
p2008
sg9
Nsg10
Nsg11
V610 / S.6 / YPM - C100 / XI - 1439
p2009
sg13
Nsg14
Nsg15
Nsg17
Nsg18
VM. RIDWAN KAMIL (WALIKOTA BANDUNG)
p2010
sg19
Nsg20
I609
sg21
Nsa(dp2011
g2
Nsg3
g61
sg5
Nsg6
Nsg7
VPERMOHONAN PEMINJAMAN TEMPAT (TALENTS MAPPING BMKA)
p2012
sg9
Nsg10
Nsg11
V611 / S.6 / YPM - 5000 / XI - 1439
p2013
sg13
Nsg14
Nsg15
V30 Juli 2018
p2014
sg17
Nsg18
g1910
sg19
Nsg20
I610
sg21
Nsa(dp2015
g2
Nsg3
VIMAM CHOIRUL BASRI
p2016
sg5
Nsg6
Nsg7
VPERMOHONAN PARTISIPASI INVESTOR
p2017
sg9
Nsg10
Nsg11
V612 / S.6 / YPM - 6300 / XI - 1439
p2018
sg13
Nsg14
Nsg15
V31 Juli 2018
p2019
sg17
Nsg18
Nsg19
Nsg20
I611
sg21
Nsa(dp2020
g2
Nsg3
g23
sg5
Nsg6
Nsg7
VPERMOHONAN AUDIENSI (ABURIZAL BAKRIE)
p2021
sg9
Nsg10
Nsg11
V613 / S.6 / YPM - 1000 / XI - 1439
p2022
sg13
Nsg14
Nsg15
Nsg17
Nsg18
Nsg19
Nsg20
I612
sg21
Nsa(dp2023
g2
Nsg3
g1995
sg5
Nsg6
Nsg7
g1678
sg9
Nsg10
Nsg11
V614 / S.11 / YPM - D101 / XI - 1439
p2024
sg13
Nsg14
Nsg15
V01 Agustus 2018
p2025
sg17
Nsg18
Nsg19
Nsg20
I613
sg21
Nsa(dp2026
g2
Nsg3
Nsg5
Nsg6
Nsg7
VSURAT PEMBERITAHUAN KEGIATAN (PELEPASAN KAFILAH HAJI SALMAN ITB)
p2027
sg9
Nsg10
Nsg11
V615 / S.2 / YPM - 4400 / XI - 1439
p2028
sg13
Nsg14
Nsg15
V02 Agustus 2018
p2029
sg17
Nsg18
Nsg19
Nsg20
I614
sg21
Nsa(dp2030
g2
Nsg3
Nsg5
Nsg6
Nsg7
VPUBLIKASI TAHSIN
p2031
sg9
Nsg10
Nsg11
V616 / S.2 / YPM - 4000 / XI - 1439
p2032
sg13
Nsg14
Nsg15
Nsg17
Nsg18
Nsg19
Nsg20
I615
sg21
Nsa(dp2033
g2
Nsg3
Nsg5
Nsg6
Nsg7
VSURAT KUASA PERPANJANGAN STNK D 5920 IM
p2034
sg9
Nsg10
Nsg11
V617 / S.8 / YPM - D101 / XI - 1439
p2035
sg13
Nsg14
Nsg15
Nsg17
Nsg18
Nsg19
Nsg20
I616
sg21
Nsa(dp2036
g2
Nsg3
Nsg5
Nsg6
Nsg7
VSURAT IZIN TDK MEGIKUTI HIMPUNAN (RAKER BMKA)
p2037
sg9
Nsg10
Nsg11
V618 / S.14 / YPM - 5000 / XI - 1439
p2038
sg13
Nsg14
Nsg15
Nsg17
Nsg18
Nsg19
Nsg20
I617
sg21
Nsa(dp2039
g2
Nsg3
Nsg5
Nsg6
Nsg7
VSERTIFIKAT PENILAIAN SPECTRA 2.0
p2040
sg9
Nsg10
Nsg11
V619 / S.4 / YPM - 5000 / XI - 1439
p2041
sg13
Nsg14
Nsg15
Nsg17
Nsg18
Nsg19
Nsg20
I618
sg21
Nsa(dp2042
g2
Nsg3
Nsg5
Nsg6
Nsg7
VSERTIFIKAT PANITIA SPECTRA 2.1
p2043
sg9
Nsg10
Nsg11
V620 / S.4 / YPM - 5000 / XI - 1439
p2044
sg13
Nsg14
Nsg15
Nsg17
Nsg18
Nsg19
Nsg20
I619
sg21
Nsa(dp2045
g2
Nsg3
Nsg5
Nsg6
Nsg7
VSURAT TUGAS PEMBIMBING UTAMA HAJI (ASEP ZAENAL AUSOP)
p2046
sg9
Nsg10
Nsg11
V621 / S.11 / YPM - 4400 / XI - 1439
p2047
sg13
Nsg14
Nsg15
Nsg17
Nsg18
Nsg19
Nsg20
I620
sg21
Nsa(dp2048
g2
Nsg3
Nsg5
Nsg6
Nsg7
VSURAT TUGAS PENDAMPING PEMBIMBING HAJI (TIAN SUMARNA)
p2049
sg9
Nsg10
Nsg11
V622 / S.11 / YPM - 4400 / XI - 1439
p2050
sg13
Nsg14
Nsg15
Nsg17
Nsg18
Nsg19
Nsg20
I621
sg21
Nsa(dp2051
g2
Nsg3
Nsg5
Nsg6
Nsg7
g2046
sg9
Nsg10
Nsg11
V623 / S.11 / YPM - 4400 / XI - 1439
p2052
sg13
Nsg14
Nsg15
Nsg17
Nsg18
Nsg19
Nsg20
I622
sg21
Nsa(dp2053
g2
Nsg3
Nsg5
Nsg6
Nsg7
VSERTIFIKAT PELATIHAN GURU
p2054
sg9
Nsg10
Nsg11
V624 / S.4 / YPM - 7000 / XI - 1439
p2055
sg13
Nsg14
Nsg15
Nsg17
Nsg18
Nsg19
Nsg20
I623
sg21
Nsa(dp2056
g2
Nsg3
Nsg5
Nsg6
Nsg7
VTAHNIAH PERNIKAHAN RISYA YOLAVISIANDRA & MUHAMMAD IQBAL SYAFARIE
p2057
sg9
Nsg10
Nsg11
V625 / S.12 / YPM - 1000 / XI - 1439
p2058
sg13
Nsg14
Nsg15
V03 Agustus 2018
p2059
sg17
Nsg18
Nsg19
Nsg20
I624
sg21
Nsa(dp2060
g2
Nsg3
Nsg5
Nsg6
Nsg7
VSURAT TUGAS PELATIHAN MANAJEMEN MASJID SE-BANDUNG RAYA
p2061
sg9
Nsg10
Nsg11
V626 / S.11 / YPM - 2100 / XI - 1439
p2062
sg13
Nsg14
Nsg15
V04 Agustus 2018
p2063
sg17
Nsg18
Nsg19
Nsg20
I625
sg21
Nsa(dp2064
g2
Nsg3
Nsg5
Nsg6
Nsg7
VSE (LEMBAR KEGIATAN SINGKAT - LEKAS)
p2065
sg9
Nsg10
Nsg11
V627 / S.3 / YPM - 2000 / XI - 1439
p2066
sg13
Nsg14
Nsg15
V06 Agustus 2018
p2067
sg17
Nsg18
Nsg19
Nsg20
I626
sg21
Nsa(dp2068
g2
Nsg3
Nsg5
Nsg6
Nsg7
VIZIN MENGGUNAKAN LOKASI
p2069
sg9
Nsg10
Nsg11
V628 / S.6 / YPM - 6300 / XI - 1439
p2070
sg13
Nsg14
Nsg15
Nsg17
Nsg18
Nsg19
Nsg20
I627
sg21
Nsa(dp2071
g2
Nsg3
Nsg5
Nsg6
Nsg7
VIZIN TDK MENGIKUTI OSJUR (KEGIATAN BMKA)
p2072
sg9
Nsg10
Nsg11
V629 / S.14 / YPM - 5000 / XI - 1439
p2073
sg13
Nsg14
Nsg15
V07 Agustus 2018
p2074
sg17
Nsg18
Nsg19
Nsg20
I628
sg21
Nsa(dp2075
g2
Nsg3
Nsg5
Nsg6
Nsg7
VTANGGAPAN SEWA GEDUNG (PERPANJANG 3 BULAN)
p2076
sg9
Nsg10
Nsg11
V630 / S.16 / YPM - 1000 / XI - 1439
p2077
sg13
Nsg14
Nsg15
Nsg17
Nsg18
VBANK MUAMALAT CABANG BANDUNG
p2078
sg19
Nsg20
I629
sg21
Nsa(dp2079
g2
Nsg3
Nsg5
Nsg6
Nsg7
VSK TIM KEBENCANAAN MASJID SALMAN ITB
p2080
sg9
Nsg10
Nsg11
V631 / S.1 / YPM - 1000 / XI - 1439
p2081
sg13
Nsg14
Nsg15
Nsg17
Nsg18
Nsg19
Nsg20
I630
sg21
Nsa(dp2082
g2
Nsg3
g23
sg5
Nsg6
Nsg7
VSURAT TUGAS TIM KEBENCANAAN
p2083
sg9
Nsg10
Nsg11
V632 / S.11 / YPM - 2100 / XI - 1439
p2084
sg13
Nsg14
Nsg15
V08 Agustus 2018
p2085
sg17
Nsg18
Nsg19
Nsg20
I631
sg21
Nsa(dp2086
g2
Nsg3
Nsg5
Nsg6
Nsg7
VPERMOHONAN PEMINJAMAN FASILITAS (SHALAT IDUL ADHA 1439)
p2087
sg9
Nsg10
Nsg11
V633 / S.6 / YPM - 1000 / XI - 1439
p2088
sg13
Nsg14
Nsg15
V09 Agustus 2018
p2089
sg17
Nsg18
VWRSO ITB
p2090
sg19
Nsg20
I632
sg21
Nsa(dp2091
g2
Nsg3
Nsg5
Nsg6
Nsg7
VSURAT PERJANJIAN KONTRAK RUMAH SAHABAT MUDA PERINTIS
p2092
sg9
Nsg10
Nsg11
V634 / S.9 / YPM - 5000 / XI - 1439
p2093
sg13
Nsg14
Nsg15
Nsg17
Nsg18
Nsg19
Nsg20
I633
sg21
Nsa(dp2094
g2
Nsg3
Nsg5
Nsg6
Nsg7
g2092
sg9
Nsg10
Nsg11
V635 / S.9 / YPM - 5000 / XI - 1439
p2095
sg13
Nsg14
Nsg15
Nsg17
Nsg18
Nsg19
Nsg20
I634
sg21
Nsa(dp2096
g2
Nsg3
Nsg5
Nsg6
Nsg7
g2092
sg9
Nsg10
Nsg11
V636 / S.9 / YPM - 5000 / XI - 1439
p2097
sg13
Nsg14
Nsg15
Nsg17
Nsg18
Nsg19
Nsg20
I635
sg21
Nsa(dp2098
g2
Nsg3
Nsg5
Nsg6
Nsg7
g2092
sg9
Nsg10
Nsg11
V637 / S.9 / YPM - 5000 / XI - 1439
p2099
sg13
Nsg14
Nsg15
Nsg17
Nsg18
Nsg19
Nsg20
I636
sg21
Nsa(dp2100
g2
Nsg3
Nsg5
Nsg6
Nsg7
g2092
sg9
Nsg10
Nsg11
V638 / S.9 / YPM - 5000 / XI - 1439
p2101
sg13
Nsg14
Nsg15
Nsg17
Nsg18
Nsg19
Nsg20
I637
sg21
Nsa(dp2102
g2
Nsg3
Nsg5
Nsg6
Nsg7
VUNDANGAN WORKSHOP
p2103
sg9
Nsg10
Nsg11
V639 / S.7 / YPM - 7000 / XI - 1439
p2104
sg13
Nsg14
Nsg15
Nsg17
Nsg18
Nsg19
Nsg20
I638
sg21
Nsa(dp2105
g2
Nsg3
Nsg5
Nsg6
Nsg7
VSURAT PERJANJIAN KONTRAK RUMAH SAHABAT MUDA PERINTIS (PUTRA)
p2106
sg9
Nsg10
Nsg11
V640 / S.9 / YPM - 5000 / XI - 1439
p2107
sg13
Nsg14
Nsg15
Nsg17
Nsg18
Nsg19
Nsg20
I639
sg21
Nsa(dp2108
g2
Nsg3
Nsg5
Nsg6
Nsg7
VSURAT PERJANJIAN KONTRAK RUMAH SAHABAT MUDA PERINTIS (PUTRI)
p2109
sg9
Nsg10
Nsg11
V641 / S.9 / YPM - 5000 / XI - 1439
p2110
sg13
Nsg14
Nsg15
Nsg17
Nsg18
Nsg19
Nsg20
I640
sg21
Nsa(dp2111
g2
Nsg3
Nsg5
Nsg6
Nsg7
VSK GURU KHAIRINA CIMENYAN
p2112
sg9
Nsg10
Nsg11
V642 / S.1 / YPM - 1000 / XI - 1439
p2113
sg13
Nsg14
Nsg15
Nsg17
Nsg18
Nsg19
Nsg20
I641
sg21
Nsa(dp2114
g2
Nsg3
Nsg5
Nsg6
Nsg7
VSURAT REKOMENDASI MENGIKUTI OHU ITB
p2115
sg9
Nsg10
Nsg11
V643 / S.8 / YPM - 5000 / XI - 1439
p2116
sg13
Nsg14
Nsg15
Nsg17
Nsg18
Nsg19
Nsg20
I642
sg21
Nsa(dp2117
g2
Nsg3
Nsg5
Nsg6
Nsg7
VUNDANGAN DISKUSI WAKAF AHLI BERSAMA BWI
p2118
sg9
Nsg10
Nsg11
V644 / S.7 / YPM - C100 / XI - 1439
p2119
sg13
Nsg14
Nsg15
V10 Agustus 2018
p2120
sg17
Nsg18
Nsg19
Nsg20
I643
sg21
Nsa(dp2121
g2
Nsg3
g61
sg5
Nsg6
Nsg7
VPERMOHONAN PEMINJAMAN FASILITAS - TAMAN GANESHA (PAS 36-69)
p2122
sg9
Nsg10
Nsg11
V645 / S.6 / YPM - 5500 / XI - 1439
p2123
sg13
Nsg14
Nsg15
Nsg17
Nsg18
g1472
sg19
Nsg20
I644
sg21
Nsa(dp2124
g2
Nsg3
Nsg5
Nsg6
Nsg7
VSURAT KETERANGAN PENGALAMAN KERJA (PAKLARING - MUHAMMAD HUSNI)
p2125
sg9
Nsg10
Nsg11
V646 / S.4 / YPM - 1000 / XI - 1439
p2126
sg13
Nsg14
Nsg15
Nsg17
Nsg18
Nsg19
Nsg20
I645
sg21
Nsa(dp2127
g2
Nsg3
Nsg5
Nsg6
Nsg7
VSURAT PERUBAHAN SPACE TTD (SYARIF - SUWARNO)
p2128
sg9
Nsg10
Nsg11
V647 / S.4 / YPM - 1000 / XII - 1439
p2129
sg13
Nsg14
Nsg15
V13 Agustus 2018
p2130
sg17
Nsg18
Nsg19
Nsg20
I646
sg21
Nsa(dp2131
g2
Nsg3
Nsg5
Nsg6
Nsg7
VSURAT KUASA KE BU AMI
p2132
sg9
Nsg10
Nsg11
V648 / S.8 / YPM - 1000 / XII - 1439
p2133
sg13
Nsg14
Nsg15
Nsg17
Nsg18
Nsg19
Nsg20
I647
sg21
Nsa(dp2134
g2
Nsg3
Nsg5
Nsg6
Nsg7
VSURAT KETERANGAN BEKERJA (SALIM RUSLI)
p2135
sg9
Nsg10
Nsg11
V649 / S.4 / YPM - 2100 / XII - 1439
p2136
sg13
Nsg14
Nsg15
V15 Agustus 2018
p2137
sg17
Nsg18
Nsg19
Nsg20
I648
sg21
Nsa(dp2138
g2
Nsg3
Nsg5
Nsg6
Nsg7
VSURAT KETERANGAN BEKERJA (DEDE RIDWAN)
p2139
sg9
Nsg10
Nsg11
V650 / S.4 / YPM - 2100 / XII - 1439
p2140
sg13
Nsg14
Nsg15
Nsg17
Nsg18
Nsg19
Nsg20
I649
sg21
Nsa(dp2141
g2
Nsg3
Nsg5
Nsg6
Nsg7
VTANGGAPAN PENAWARAN HARGA HEWAN QURBAN
p2142
sg9
Nsg10
Nsg11
V651 / S.16 / YPM - 2100 / XII - 1439
p2143
sg13
Nsg14
Nsg15
Nsg17
Nsg18
VKETUA KOPERASI KELUARGA PEGAWAI ITB
p2144
sg19
Nsg20
I650
sg21
Nsa(dp2145
g2
Nsg3
Nsg5
Nsg6
Nsg7
VSK TIM GROUNDBREAKING MASJID SALMAN RASYIDI RSSH
p2146
sg9
Nsg10
Nsg11
V652 / S.1 / YPM - 1000 / XII - 1439
p2147
sg13
Nsg14
Nsg15
Nsg17
Nsg18
Nsg19
Nsg20
I651
sg21
Nsa(dp2148
g2
Nsg3
Nsg5
Nsg6
Nsg7
VSK UNIT
p2149
sg9
Nsg10
Nsg11
V653 / S.1 / YPM - 5000 / XII - 1439
p2150
sg13
Nsg14
Nsg15
Nsg17
Nsg18
Nsg19
Nsg20
I652
sg21
Nsa(dp2151
g2
Nsg3
Nsg5
Nsg6
Nsg7
VUNDANGAN SEMNINAR KE KEPALA SEKOLAH SEJAWA BARAT
p2152
sg9
Nsg10
Nsg11
V654 / S.7 / YPM - 7000 / XII -1439
p2153
sg13
Nsg14
Nsg15
Nsg17
Nsg18
Nsg19
Nsg20
I653
sg21
Nsa(dp2154
g2
Nsg3
Nsg5
Nsg6
Nsg7
VSURAT AUDIENSI GROUNDBREAKING MASJID KOMPLEKS RSSH
p2155
sg9
Nsg10
Nsg11
V654 / S.7 / YPM - 7000 / XII - 1439
p2156
sg13
Nsg14
Nsg15
V20 Agustus 2018
p2157
sg17
Nsg18
Nsg19
Nsg20
I654
sg21
Nsa(dp2158
g2
Nsg3
Nsg5
Nsg6
Nsg7
VSURAT IJIN PESERTA
p2159
sg9
Nsg10
Nsg11
V655 / S.14 / YPM - 5000 / XII - 1439
p2160
sg13
Nsg14
Nsg15
Nsg17
Nsg18
Nsg19
Nsg20
I655
sg21
Nsa(dp2161
g2
Nsg3
Nsg5
Nsg6
Nsg7
VSURAT IJIN KEGIATAN
p2162
sg9
Nsg10
Nsg11
V656 / S.6 / YPM - 5000 / XII - 1439
p2163
sg13
Nsg14
Nsg15
Nsg17
Nsg18
Nsg19
Nsg20
I656
sg21
Nsa(dp2164
g2
Nsg3
Nsg5
Nsg6
Nsg7
g1413
sg9
Nsg10
Nsg11
V657 / S.4 / YPM - 5000 / XII - 1439
p2165
sg13
Nsg14
Nsg15
Nsg17
Nsg18
Nsg19
Nsg20
I657
sg21
Nsa(dp2166
g2
Nsg3
Nsg5
Nsg6
Nsg7
VPERMOHONAN PEMINJAMAN FASILITAS - TAMAN GANESHA (SSC 16)
p2167
sg9
Nsg10
Nsg11
V658 / S.6 / YPM - 5000 / XII - 1439
p2168
sg13
Nsg14
Nsg15
Nsg17
Nsg18
Nsg19
Nsg20
I658
sg21
Nsa(dp2169
g2
Nsg3
Nsg5
Nsg6
Nsg7
g116
sg9
Nsg10
Nsg11
V659 / S.11 / YPM - 7000 / XII - 1439
p2170
sg13
Nsg14
Nsg15
V21 Agustus 2018
p2171
sg17
Nsg18
Nsg19
Nsg20
I659
sg21
Nsa(dp2172
g2
Nsg3
Nsg5
Nsg6
Nsg7
VPERMOHONAN NARASUMBER
p2173
sg9
Nsg10
Nsg11
V660 / S.6 / YPM - 7000 / XII - 1439
p2174
sg13
Nsg14
Nsg15
V23 Agustus 2018
p2175
sg17
Nsg18
Nsg19
Nsg20
I660
sg21
Nsa(dp2176
g2
Nsg3
Nsg5
Nsg6
Nsg7
g1413
sg9
Nsg10
Nsg11
V661 / S.4 / YPM - 7000 / XII - 1439
p2177
sg13
Nsg14
Nsg15
V24 Agustus 2018
p2178
sg17
Nsg18
Nsg19
Nsg20
I661
sg21
Nsa(dp2179
g2
Nsg3
Nsg5
Nsg6
Nsg7
g116
sg9
Nsg10
Nsg11
V662 / S.11 / YPM - 7000 / XII - 1439
p2180
sg13
Nsg14
Nsg15
Nsg17
Nsg18
Nsg19
Nsg20
I662
sg21
Nsa(dp2181
g2
Nsg3
Nsg5
Nsg6
Nsg7
VSURAT KUASA PERPANJANGAN STNK MOBIL AMBULANCE D 9934 AE
p2182
sg9
Nsg10
Nsg11
V663 / S.8 / YPM - D101 / XII - 1439
p2183
sg13
Nsg14
Nsg15
V27 Agustus 2018
p2184
sg17
Nsg18
Nsg19
Nsg20
I663
sg21
Nsa(dp2185
g2
Nsg3
Nsg5
Nsg6
Nsg7
VSURAT IZIN TDK IKUT KKN (TALENTS MAPING BMKA)
p2186
sg9
Nsg10
Nsg11
V664 / S.14 / YPM - 5000 / XII - 1439
p2187
sg13
Nsg14
Nsg15
Nsg17
Nsg18
Nsg19
Nsg20
I664
sg21
Nsa(dp2188
g2
Nsg3
Nsg5
Nsg6
Nsg7
VPUBLIKASI BAHASA ARAB 30
p2189
sg9
Nsg10
Nsg11
V665 / S.2 / YPM - 4000 / XII - 1439
p2190
sg13
Nsg14
Nsg15
Nsg17
Nsg18
Nsg19
Nsg20
I665
sg21
Nsa(dp2191
g2
Nsg3
Nsg5
Nsg6
Nsg7
VSERTIFIKAT PANITIA P3RI
p2192
sg9
Nsg10
Nsg11
V666 / S.4 / YPM - 2110 / XII - 1439
p2193
sg13
Nsg14
Nsg15
Nsg17
Nsg18
Nsg19
Nsg20
I666
sg21
Nsa(dp2194
g2
Nsg3
Nsg5
Nsg6
Nsg7
VSURAT PERINGATAN 1 (DJAMHURI)
p2195
sg9
Nsg10
Nsg11
V667 / S.13 / YPM - D101 / XII - 1439
p2196
sg13
Nsg14
Nsg15
Nsg17
Nsg18
Nsg19
Nsg20
I667
sg21
Nsa(dp2197
g2
Nsg3
Nsg5
Nsg6
Nsg7
VSE KUPON KANTIN
p2198
sg9
Nsg10
Nsg11
V668 / S.3 / YPM - D101 / XII - 1439
p2199
sg13
Nsg14
Nsg15
Nsg17
Nsg18
Nsg19
Nsg20
I668
sg21
Nsa(dp2200
g2
Nsg3
Nsg5
Nsg6
Nsg7
VSURAT KETERANGAN AKTIVIS - PENDAMPING IJAZAH
p2201
sg9
Nsg10
Nsg11
V669 / S.4 / YPM - 5000 / XII - 1439
p2202
sg13
Nsg14
Nsg15
Nsg17
Nsg18
Nsg19
Nsg20
I669
sg21
Nsa(dp2203
g2
Nsg3
Nsg5
Nsg6
Nsg7
VPERMOHONAN PEMINJAMAN TEMPAT (FORUM AAEI)
p2204
sg9
Nsg10
Nsg11
V670 / S.6 / YPM - 5000 / XII - 1439
p2205
sg13
Nsg14
Nsg15
V29 Agustus 2018
p2206
sg17
Nsg18
VPRODI TEKNIK SIPIL ITB
p2207
sg19
Nsg20
I670
sg21
Nsa(dp2208
g2
Nsg3
Nsg5
Nsg6
Nsg7
g2204
sg9
Nsg10
Nsg11
V671 / S.6 / YPM - 5000 / XII - 1439
p2209
sg13
Nsg14
Nsg15
Nsg17
Nsg18
g1910
sg19
Nsg20
I671
sg21
Nsa(dp2210
g2
Nsg3
Nsg5
Nsg6
Nsg7
VPERMOHONAN PEMINJAMAN TEMPAT (TRAINING SD, SMP DAN SMA)
p2211
sg9
Nsg10
Nsg11
V672 / S.6 / YPM - 5400 / XII - 1439
p2212
sg13
Nsg14
Nsg15
Nsg17
Nsg18
g2207
sg19
Nsg20
I672
sg21
Nsa(dp2213
g2
Nsg3
g23
sg5
Nsg6
Nsg7
VTANGGAPAN PEMBERITAHUAN DAN PERMOHONAN
p2214
sg9
Nsg10
Nsg11
V673 / S.16 / YPM - 1000 / XII - 1439
p2215
sg13
Nsg14
Nsg15
Nsg17
Nsg18
VDIREKTUR UTAMA PT SALMAN RASIDI SEMESTA
p2216
sg19
Nsg20
I673
sg21
Nsa(dp2217
g2
Nsg3
Nsg5
Nsg6
Nsg7
VPERMOHONAN NARASUMBER (GSJN)
p2218
sg9
Nsg10
Nsg11
V674 / S.6 / YPM - 5000 / XII - 1439
p2219
sg13
Nsg14
Nsg15
Nsg17
Nsg18
g2010
sg19
Nsg20
I674
sg21
Nsa(dp2220
g2
Nsg3
Nsg5
Nsg6
Nsg7
VPERMOHONAN MENERJEMAH BUKU
p2221
sg9
Nsg10
Nsg11
V675 / S.6 / YPM - 4000 / XII - 1439
p2222
sg13
Nsg14
Nsg15
V31 Agustus 2018
p2223
sg17
Nsg18
Nsg19
Nsg20
I675
sg21
Nsa(dp2224
g2
Nsg3
Nsg5
Nsg6
Nsg7
VPERJANJIAN KERJA KARYAWAN
p2225
sg9
Nsg10
Nsg11
V676 / S.9 / YPM - 4400 / XII - 1439
p2226
sg13
Nsg14
Nsg15
Nsg17
Nsg18
Nsg19
Nsg20
I676
sg21
Nsa(dp2227
g2
Nsg3
Nsg5
Nsg6
Nsg7
VPERJANJIAN KERJASAMA (BJB - BWS)
p2228
sg9
Nsg10
Nsg11
V677 / S.9 / YPM - C100 / XII - 1439
p2229
sg13
Nsg14
Nsg15
g1099
(S'\x07\xe2\t\x03\x00\x00\x00\x00\x00\x00'
p2230
tp2231
Rp2232
sg17
Nsg18
Nsg19
Nsg20
I677
sg21
Nsa(dp2233
g2
Nsg3
Nsg5
Nsg6
Nsg7
VPERJANJIAN KERJASAMA (BWS - BJBS)
p2234
sg9
Nsg10
Nsg11
V678 / S.9 / YPM - C100 / XII - 1439
p2235
sg13
Nsg14
Nsg15
Nsg17
Nsg18
Nsg19
Nsg20
I678
sg21
Nsa(dp2236
g2
Nsg3
Nsg5
Nsg6
Nsg7
VSURAT KETERANGAN KETUA BADAN WAKAF SALMAN
p2237
sg9
Nsg10
Nsg11
V679 / S.4 / YPM - 1000 / XII - 1439
p2238
sg13
Nsg14
Nsg15
Nsg17
Nsg18
Nsg19
Nsg20
I679
sg21
Nsa(dp2239
g2
Nsg3
Nsg5
Nsg6
Nsg7
VSURAT TANGGAPAN KEGIATAN KAJIAN DAN BERBAGI NASI 2018/1439
p2240
sg9
Nsg10
Nsg11
V680 / S.16 / YPM - 2100 / XII - 1439
p2241
sg13
Nsg14
Nsg15
Nsg17
Nsg18
Nsg19
Nsg20
I680
sg21
Nsa(dp2242
g2
Nsg3
Nsg5
Nsg6
Nsg7
VSURAT TUGAS NARASUMBER DISKUSI DOSEN
p2243
sg9
Nsg10
Nsg11
V681 / S.11 / YPM - B100 / XII - 1439
p2244
sg13
Nsg14
Nsg15
Nsg17
Nsg18
VUIN IMAM BONJOL PADANG
p2245
sg19
Nsg20
I681
sg21
Nsa(dp2246
g2
Nsg3
Nsg5
Nsg6
Nsg7
VSURAT KETERANGAN - BPJS KESEHATAN (MENDAFTARKAN IBU A.N IYAN NURDIN)
p2247
sg9
Nsg10
Nsg11
V682 / S.4 / YPM - 2100 / XII - 1439
p2248
sg13
Nsg14
Nsg15
Nsg17
Nsg18
VKEPALA KANTOR BPJS KESEHATAN KOTA BANDUNG
p2249
sg19
Nsg20
I682
sg21
Nsa(dp2250
g2
Nsg3
Nsg5
Nsg6
Nsg7
VPERJANJIAN
p2251
sg9
Nsg10
Nsg11
V683 / S.9 / YPM - 2100 / XII - 1439
p2252
sg13
Nsg14
Nsg15
g1099
(S'\x07\xe2\t\x04\x00\x00\x00\x00\x00\x00'
p2253
tp2254
Rp2255
sg17
Nsg18
Nsg19
Nsg20
I683
sg21
Nsa(dp2256
g2
Nsg3
Nsg5
Nsg6
Nsg7
VPERUBAHAN SCEDULE FILM IQRO' "HARRIS J"
p2257
sg9
Nsg10
Nsg11
V684 / S.2 / YPM - 6300 / XII - 1439
p2258
sg13
Nsg14
Nsg15
Nsg17
Nsg18
VIBU RINA NOVITA (DNA PRODUCTION)
p2259
sg19
Nsg20
I684
sg21
Nsa(dp2260
g2
Nsg3
Nsg5
Nsg6
Nsg7
VSURAT KETERANGAN KERJA (ADE MASTUR)
p2261
sg9
Nsg10
Nsg11
V685 / S.4 / YPM - 2100 / XII - 1439
p2262
sg13
Nsg14
Nsg15
Nsg17
Nsg18
Nsg19
Nsg20
I685
sg21
Nsa(dp2263
g2
Nsg3
Nsg5
Nsg6
Nsg7
VSURAT SPONSOR FILM IQRO'
p2264
sg9
Nsg10
Nsg11
V686 / S.6 / YPM - 6300 / XII - 1439
p2265
sg13
Nsg14
Nsg15
Nsg17
Nsg18
Nsg19
Nsg20
I686
sg21
Nsa(dp2266
g2
Nsg3
Nsg5
Nsg6
Nsg7
VSURAT SPONSOR FILM IQRO' -1
p2267
sg9
Nsg10
Nsg11
V687 / S.6 / YPM - 6300 / XII - 1439
p2268
sg13
Nsg14
Nsg15
Nsg17
Nsg18
Nsg19
Nsg20
I687
sg21
Nsa(dp2269
g2
Nsg3
Nsg5
Nsg6
Nsg7
VTANGGAPAN PENAMBAHAN PIHAK KE 2 PADA PERJANJIAN SEWA RUANGAN
p2270
sg9
Nsg10
Nsg11
V688 / S.16 / YPM - D100 / XII - 1439
p2271
sg13
Nsg14
Nsg15
g1099
(S'\x07\xe2\t\x05\x00\x00\x00\x00\x00\x00'
p2272
tp2273
Rp2274
sg17
Nsg18
g52
sg19
Nsg20
I688
sg21
Nsa(dp2275
g2
Nsg3
Nsg5
Nsg6
Nsg7
VPERMOHONAN PEMINJAMAN FASILITAS - TAMAN GANESHA (KARISMA - PCP)
p2276
sg9
Nsg10
Nsg11
V689 / S.6 / YPM - 5400 / XII - 1439
p2277
sg13
Nsg14
Nsg15
Nsg17
Nsg18
g1472
sg19
Nsg20
I689
sg21
Nsa(dp2278
g2
Nsg3
Nsg5
Nsg6
Nsg7
g1678
sg9
Nsg10
Nsg11
V690 / S.11 / YPM - D101 / XII - 1439
p2279
sg13
Nsg14
Nsg15
Nsg17
Nsg18
Nsg19
Nsg20
I690
sg21
Nsa(dp2280
g2
Nsg3
Nsg5
Nsg6
Nsg7
VSURAT IZIN TDK MENGIKUTI KEGIATAN KAMPUS (SSC 16)
p2281
sg9
Nsg10
Nsg11
V691 / S.14 / YPM - 5000 / XII - 1439
p2282
sg13
Nsg14
Nsg15
g1099
(S'\x07\xe2\t\x06\x00\x00\x00\x00\x00\x00'
p2283
tp2284
Rp2285
sg17
Nsg18
Nsg19
Nsg20
I691
sg21
Nsa(dp2286
g2
Nsg3
Nsg5
Nsg6
Nsg7
g2054
sg9
Nsg10
Nsg11
V692 / S.14 / YPM - 5000 / XII - 1439
p2287
sg13
Nsg14
Nsg15
g1099
(S'\x07\xe2\t\x07\x00\x00\x00\x00\x00\x00'
p2288
tp2289
Rp2290
sg17
Nsg18
Nsg19
Nsg20
I692
sg21
Nsa(dp2291
g2
Nsg3
Nsg5
Nsg6
Nsg7
VPERMOHONAN PEMINJAMAN FASILITAS - AULA BARAT (WAKAF GOES TO CAMPUS II)
p2292
sg9
Nsg10
Nsg11
V693 / S.6 / YPM - 2100 / XII - 1439
p2293
sg13
Nsg14
Nsg15
Nsg17
Nsg18
Nsg19
Nsg20
I693
sg21
Nsa(dp2294
g2
Nsg3
Nsg5
Nsg6
Nsg7
VSK TIM PENYUSUNAN DOKUMEN APLIKASI MANAJEMEN KINERJA EKSELEN (MKE) YAYASAN PEMBINA MASJID SALMAN ITB
p2295
sg9
Nsg10
Nsg11
V694 / S.1 / YPM - 1000 / XII - 1439
p2296
sg13
Nsg14
Nsg15
Nsg17
Nsg18
Nsg19
Nsg20
I694
sg21
Nsa(dp2297
g2
Nsg3
Nsg5
Nsg6
Nsg7
VSERTIFIKAT PESERTA SSC 15
p2298
sg9
Nsg10
Nsg11
V695 / S.4 / YPM - 5000 / XII - 1439
p2299
sg13
Nsg14
Nsg15
Nsg17
Nsg18
Nsg19
Nsg20
I695
sg21
Nsa(dp2300
g2
Nsg3
Nsg5
Nsg6
Nsg7
Nsg9
Nsg10
Nsg11
V696 / S.4 / YPM - 1000 / XII - 1439
p2301
sg13
Nsg14
Nsg15
Nsg17
Nsg18
Nsg19
Nsg20
I696
sg21
Nsa(dp2302
g2
Nsg3
Nsg5
Nsg6
Nsg7
Nsg9
Nsg10
Nsg11
V697 / S.4 / YPM - 1000 / I - 1440
p2303
sg13
Nsg14
Nsg15
Nsg17
Nsg18
Nsg19
Nsg20
I697
sg21
Nsa(dp2304
g2
Nsg3
Nsg5
Nsg6
Nsg7
VSURAT KETERANGAN DOMISILI (PT ELEKTRONIKA UTAMA - EU ITB) - SERTIFIKAT
p2305
sg9
Nsg10
Nsg11
V698 / S.4 / YPM - 1000 / I - 1440
p2306
sg13
Nsg14
Nsg15
Nsg17
Nsg18
Nsg19
Nsg20
I698
sg21
Nsa(dp2307
g2
Nsg3
Nsg5
Nsg6
Nsg7
VSURAT KETERANGAN DOMISILI (PT ELEKTRONIKA UTAMA - EU ITB) - PBB
p2308
sg9
Nsg10
Nsg11
V699 / S.4 / YPM - 1000 / I - 1440
p2309
sg13
Nsg14
Nsg15
Nsg17
Nsg18
Nsg19
Nsg20
I699
sg21
Nsa(dp2310
g2
Nsg3
Nsg5
Nsg6
Nsg7
VPENGANTAR LAPORAN KEUANGAN YPM SALMAN ITB
p2311
sg9
Nsg10
Nsg11
V700 / S.10 / YPM - 1000 / I - 1440
p2312
sg13
Nsg14
Nsg15
g1099
(S'\x07\xe2\t\x0c\x00\x00\x00\x00\x00\x00'
p2313
tp2314
Rp2315
sg17
Nsg18
Nsg19
Nsg20
I700
sg21
Nsa(dp2316
g2
Nsg3
Nsg5
Nsg6
Nsg7
VPERMOHONAN PEMINJAMAN TEMPAT (KUMPUL KK BMKA)
p2317
sg9
Nsg10
Nsg11
V701 / S.6 / YPM - 5000 / I - 1440
p2318
sg13
Nsg14
Nsg15
Nsg17
Nsg18
g1910
sg19
Nsg20
I701
sg21
Nsa(dp2319
g2
Nsg3
Nsg5
Nsg6
Nsg7
VPERMOHONAN PEMBICARA FGD II
p2320
sg9
Nsg10
Nsg11
V702 / S.6 / YPM - B100 / I - 1440
p2321
sg13
Nsg14
Nsg15
g1099
(S'\x07\xe2\t\r\x00\x00\x00\x00\x00\x00'
p2322
tp2323
Rp2324
sg17
Nsg18
VSLAMET IBRAHIM, BUDI FAISAL & AL HILAL FURQAN
p2325
sg19
Nsg20
I702
sg21
Nsa(dp2326
g2
Nsg3
Nsg5
Nsg6
Nsg7
VPERMOHONAN MODERATOR FGD II
p2327
sg9
Nsg10
Nsg11
V703 / S.6 / YPM - B100 / I - 1440
p2328
sg13
Nsg14
Nsg15
Nsg17
Nsg18
VTATI SURYATI
p2329
sg19
Nsg20
I703
sg21
Nsa(dp2330
g2
Nsg3
Nsg5
Nsg6
Nsg7
VINFORMASI KELOLOSAN BEASISWA
p2331
sg9
Nsg10
Nsg11
V704 / S.2 / YPM - 8000 / I - 1440
p2332
sg13
Nsg14
Nsg15
Nsg17
Nsg18
Nsg19
Nsg20
I704
sg21
Nsa(dp2333
g2
Nsg3
Nsg5
Nsg6
Nsg7
VUNDANGAN SAINTIKA FIESTA
p2334
sg9
Nsg10
Nsg11
V705 / S.7 / YPM - 7000 / I - 1440
p2335
sg13
Nsg14
Nsg15
g1099
(S'\x07\xe2\t\x11\x00\x00\x00\x00\x00\x00'
p2336
tp2337
Rp2338
sg17
Nsg18
Nsg19
Nsg20
I705
sg21
Nsa(dp2339
g2
Nsg3
Nsg5
Nsg6
Nsg7
VPERMOHONAN REFERENSI BANK
p2340
sg9
Nsg10
Nsg11
V706 / S.6 / YPM - 6300 / I - 1440
p2341
sg13
Nsg14
Nsg15
Nsg17
Nsg18
Nsg19
Nsg20
I706
sg21
Nsa(dp2342
g2
Nsg3
Nsg5
Nsg6
Nsg7
VSURAT SPONSOL FILM
p2343
sg9
Nsg10
Nsg11
V707 / S.6 / YPM - 6300 / I - 1440
p2344
sg13
Nsg14
Nsg15
Nsg17
Nsg18
Nsg19
Nsg20
I707
sg21
Nsa(dp2345
g2
Nsg3
Nsg5
Nsg6
Nsg7
VSURAT SPONSOL FILM (INGGRIS)
p2346
sg9
Nsg10
Nsg11
V708 / S.6 / YPM - 6300 / I - 1440
p2347
sg13
Nsg14
Nsg15
Nsg17
Nsg18
Nsg19
Nsg20
I708
sg21
Nsa(dp2348
g2
Nsg3
Nsg5
Nsg6
Nsg7
g2122
sg9
Nsg10
Nsg11
V709 / S.6 / YPM - 5500 / I - 1440
p2349
sg13
Nsg14
Nsg15
g1099
(S'\x07\xe2\t\x13\x00\x00\x00\x00\x00\x00'
p2350
tp2351
Rp2352
sg17
Nsg18
g1472
sg19
Nsg20
I709
sg21
Nsa(dp2353
g2
Nsg3
Nsg5
Nsg6
Nsg7
VSERTIFIKAT BHS ARAB 29
p2354
sg9
Nsg10
Nsg11
V710 / S.4 / YPM - 4000 / I - 1440
p2355
sg13
Nsg14
Nsg15
Nsg17
Nsg18
Nsg19
Nsg20
I710
sg21
Nsa(dp2356
g2
Nsg3
Nsg5
Nsg6
Nsg7
VSERTIFIKAT BHS ARAB 27 LANJUTAN
p2357
sg9
Nsg10
Nsg11
V711 / S.4 / YPM - 4000 / I - 1440
p2358
sg13
Nsg14
Nsg15
Nsg17
Nsg18
Nsg19
Nsg20
I711
sg21
Nsa(dp2359
g2
Nsg3
Nsg5
Nsg6
Nsg7
VPENGAJUAN ISBN BUKU (IBADAH DENGAN HARTA)
p2360
sg9
Nsg10
Nsg11
V712 / S.6 / YPM - 6000 / I - 1440
p2361
sg13
Nsg14
Nsg15
Nsg17
Nsg18
Nsg19
Nsg20
I712
sg21
Nsa(dp2362
g2
Nsg3
Nsg5
Nsg6
Nsg7
VSURAT PERINTAH PELATIHAN & TRAINING SOUND SYSTEM
p2363
sg9
Nsg10
Nsg11
V713 / S.11 / YPM - 2100 / I - 1440
p2364
sg13
Nsg14
Nsg15
Nsg17
Nsg18
Nsg19
Nsg20
I713
sg21
Nsa(dp2365
g2
Nsg3
Nsg5
Nsg6
Nsg7
VSURAT KETERANGAN TELAH MENGIKUTI SSC
p2366
sg9
Nsg10
Nsg11
V714 / S.4 / YPM - 5000 / I - 1440
p2367
sg13
Nsg14
Nsg15
g1099
(S'\x07\xe2\t\x14\x00\x00\x00\x00\x00\x00'
p2368
tp2369
Rp2370
sg17
Nsg18
Nsg19
Nsg20
I714
sg21
Nsa(dp2371
g2
Nsg3
Nsg5
Nsg6
Nsg7
VSURAT PENGANTAR FORM PENILAIAN PELAKSANAAN KERJA PRAKTEK
p2372
sg9
Nsg10
Nsg11
V715 / S.10 / YPM - 2000 / I - 1440
p2373
sg13
Nsg14
Nsg15
Nsg17
Nsg18
Nsg19
Nsg20
I715
sg21
Nsa(dp2374
g2
Nsg3
Nsg5
Nsg6
Nsg7
VSERTIFIKAT IKRAR ISLAM (NI LUH WULAN SEPTIANI)
p2375
sg9
Nsg10
Nsg11
V716 / S.4 / YPM - 4000 / I - 1440
p2376
sg13
Nsg14
Nsg15
Nsg17
Nsg18
Nsg19
Nsg20
I716
sg21
Nsa(dp2377
g2
Nsg3
Nsg5
Nsg6
Nsg7
VSURAT KETERANGAN MENGIKUTI KEGIATAN AUDITOR HALAL
p2378
sg9
Nsg10
Nsg11
V717 / S.4 / YPM - B100 / I - 1440
p2379
sg13
Nsg14
Nsg15
Nsg17
Nsg18
Nsg19
Nsg20
I717
sg21
Nsa(dp2380
g2
Nsg3
Nsg5
Nsg6
Nsg7
VPKWT 2 (ERI MARAWIJAYA)
p2381
sg9
Nsg10
Nsg11
V718 / S.9/ YPM - 1000 / I - 1440
p2382
sg13
Nsg14
Nsg15
Nsg17
Nsg18
Nsg19
Nsg20
I718
sg21
Nsa(dp2383
g2
Nsg3
Nsg5
Nsg6
Nsg7
VAJAKAN BERDONASI
p2384
sg9
Nsg10
Nsg11
V719 / S.2/ YPM - 8000 / I - 1440
p2385
sg13
Nsg14
Nsg15
g1099
(S'\x07\xe2\t\x15\x00\x00\x00\x00\x00\x00'
p2386
tp2387
Rp2388
sg17
Nsg18
Nsg19
Nsg20
I719
sg21
Nsa(dp2389
g2
Nsg3
Nsg5
Nsg6
Nsg7
g2384
sg9
Nsg10
Nsg11
V720 / S.2/ YPM - 8000 / I - 1440
p2390
sg13
Nsg14
Nsg15
Nsg17
Nsg18
Nsg19
Nsg20
I720
sg21
Nsa(dp2391
g2
Nsg3
Nsg5
Nsg6
Nsg7
g2384
sg9
Nsg10
Nsg11
V721 / S.2/ YPM - 8000 / I - 1440
p2392
sg13
Nsg14
Nsg15
Nsg17
Nsg18
Nsg19
Nsg20
I721
sg21
Nsa(dp2393
g2
Nsg3
Nsg5
Nsg6
Nsg7
g2384
sg9
Nsg10
Nsg11
V722 / S.2/ YPM - 8000 / I - 1440
p2394
sg13
Nsg14
Nsg15
Nsg17
Nsg18
Nsg19
Nsg20
I722
sg21
Nsa(dp2395
g2
Nsg3
Nsg5
Nsg6
Nsg7
g2384
sg9
Nsg10
Nsg11
V723 / S.2/ YPM - 8000 / I - 1440
p2396
sg13
Nsg14
Nsg15
Nsg17
Nsg18
Nsg19
Nsg20
I723
sg21
Nsa(dp2397
g2
Nsg3
Nsg5
Nsg6
Nsg7
g2384
sg9
Nsg10
Nsg11
V724 / S.2/ YPM - 8000 / I - 1440
p2398
sg13
Nsg14
Nsg15
Nsg17
Nsg18
Nsg19
Nsg20
I724
sg21
Nsa(dp2399
g2
Nsg3
Nsg5
Nsg6
Nsg7
g2384
sg9
Nsg10
Nsg11
V725 / S.2/ YPM - 8000 / I - 1440
p2400
sg13
Nsg14
Nsg15
Nsg17
Nsg18
Nsg19
Nsg20
I725
sg21
Nsa(dp2401
g2
Nsg3
Nsg5
Nsg6
Nsg7
g2384
sg9
Nsg10
Nsg11
V726 / S.2/ YPM - 8000 / I - 1440
p2402
sg13
Nsg14
Nsg15
Nsg17
Nsg18
Nsg19
Nsg20
I726
sg21
Nsa(dp2403
g2
Nsg3
Nsg5
Nsg6
Nsg7
g2384
sg9
Nsg10
Nsg11
V727 / S.2/ YPM - 8000 / I - 1440
p2404
sg13
Nsg14
Nsg15
Nsg17
Nsg18
Nsg19
Nsg20
I727
sg21
Nsa(dp2405
g2
Nsg3
Nsg5
Nsg6
Nsg7
g2384
sg9
Nsg10
Nsg11
V728 / S.2/ YPM - 8000 / I - 1440
p2406
sg13
Nsg14
Nsg15
Nsg17
Nsg18
Nsg19
Nsg20
I728
sg21
Nsa(dp2407
g2
Nsg3
Nsg5
Nsg6
Nsg7
g2384
sg9
Nsg10
Nsg11
V729 / S.2/ YPM - 8000 / I - 1440
p2408
sg13
Nsg14
Nsg15
Nsg17
Nsg18
Nsg19
Nsg20
I729
sg21
Nsa(dp2409
g2
Nsg3
Nsg5
Nsg6
Nsg7
g2384
sg9
Nsg10
Nsg11
V730 / S.2/ YPM - 8000 / I - 1440
p2410
sg13
Nsg14
Nsg15
Nsg17
Nsg18
Nsg19
Nsg20
I730
sg21
Nsa(dp2411
g2
Nsg3
Nsg5
Nsg6
Nsg7
g2384
sg9
Nsg10
Nsg11
V731 / S.2/ YPM - 8000 / I - 1440
p2412
sg13
Nsg14
Nsg15
Nsg17
Nsg18
Nsg19
Nsg20
I731
sg21
Nsa(dp2413
g2
Nsg3
Nsg5
Nsg6
Nsg7
g2384
sg9
Nsg10
Nsg11
V732 / S.2/ YPM - 8000 / I - 1440
p2414
sg13
Nsg14
Nsg15
Nsg17
Nsg18
Nsg19
Nsg20
I732
sg21
Nsa(dp2415
g2
Nsg3
Nsg5
Nsg6
Nsg7
g2384
sg9
Nsg10
Nsg11
V733 / S.2/ YPM - 8000 / I - 1440
p2416
sg13
Nsg14
Nsg15
Nsg17
Nsg18
Nsg19
Nsg20
I733
sg21
Nsa(dp2417
g2
Nsg3
Nsg5
Nsg6
Nsg7
g2384
sg9
Nsg10
Nsg11
V734 / S.2/ YPM - 8000 / I - 1440
p2418
sg13
Nsg14
Nsg15
Nsg17
Nsg18
Nsg19
Nsg20
I734
sg21
Nsa(dp2419
g2
Nsg3
Nsg5
Nsg6
Nsg7
g2384
sg9
Nsg10
Nsg11
V735 / S.2/ YPM - 8000 / I - 1440
p2420
sg13
Nsg14
Nsg15
Nsg17
Nsg18
Nsg19
Nsg20
I735
sg21
Nsa(dp2421
g2
Nsg3
Nsg5
Nsg6
Nsg7
g2384
sg9
Nsg10
Nsg11
V736 / S.2/ YPM - 8000 / I - 1440
p2422
sg13
Nsg14
Nsg15
Nsg17
Nsg18
Nsg19
Nsg20
I736
sg21
Nsa(dp2423
g2
Nsg3
Nsg5
Nsg6
Nsg7
g2384
sg9
Nsg10
Nsg11
V737 / S.2/ YPM - 8000 / I - 1440
p2424
sg13
Nsg14
Nsg15
Nsg17
Nsg18
Nsg19
Nsg20
I737
sg21
Nsa(dp2425
g2
Nsg3
Nsg5
Nsg6
Nsg7
VPERMOHONAN PENJADWALAN ULANG PENGEMBALIAN DANA (FILM IQRO-MY UNIVERSE)
p2426
sg9
Nsg10
Nsg11
V738 / S.6/ YPM - 6300 / I - 1440
p2427
sg13
Nsg14
Nsg15
g1099
(S'\x07\xe2\t\x16\x00\x00\x00\x00\x00\x00'
p2428
tp2429
Rp2430
sg17
Nsg18
VPT BPRS AL SALAAM AMAL SALMAN
p2431
sg19
Nsg20
I738
sg21
Nsa(dp2432
g2
Nsg3
Nsg5
Nsg6
Nsg7
VPERMOHONAN PENYELESAIAN PRODUKSI FILM IQRO
p2433
sg9
Nsg10
Nsg11
V739 / S.6 / YPM - 6300 / I -1440
p2434
sg13
Nsg14
Nsg15
g1099
(S'\x07\xe2\t\x18\x00\x00\x00\x00\x00\x00'
p2435
tp2436
Rp2437
sg17
Nsg18
VBNI SYARIAH JAKARTA
p2438
sg19
Nsg20
I739
sg21
Nsa(dp2439
g2
Nsg3
Nsg5
Nsg6
Nsg7
VPERMOHONAN PENGADAAN TROFI GUBERNUR
p2440
sg9
Nsg10
Nsg11
V740 / S.6 / YPM - 7000 / I -1440
p2441
sg13
Nsg14
Nsg15
g1099
(S'\x07\xe2\t\x19\x00\x00\x00\x00\x00\x00'
p2442
tp2443
Rp2444
sg17
Nsg18
Nsg19
Nsg20
I740
sg21
Nsa(dp2445
g2
Nsg3
Nsg5
Nsg6
Nsg7
VPERMOHONAN DUKUNGAN FASILITAS PENGINAPAN DAN TRANSPORTASI
p2446
sg9
Nsg10
Nsg11
V741 / S.6 / YPM - 6300 / I -1440
p2447
sg13
Nsg14
Nsg15
Nsg17
Nsg18
VDUTA BESAR INDONESIA UNTUK INGGRIS
p2448
sg19
Nsg20
I741
sg21
Nsa(dp2449
g2
Nsg3
Nsg5
Nsg6
Nsg7
g164
sg9
Nsg10
Nsg11
V742 / S.7 / YPM - 0000 / I -1440
p2450
sg13
Nsg14
Nsg15
Nsg17
Nsg18
Nsg19
Nsg20
I742
sg21
Nsa(dp2451
g2
Nsg3
Nsg5
Nsg6
Nsg7
VSE ATURAN PENGHIDANGAN MINUMAN KEMASAN DALAM KEGIATAN RAPAT DAN KUNJUNGAN TAMU YPM SALMAN ITB
p2452
sg9
Nsg10
Nsg11
V743 / S.3 / YPM - 2000 / I -1440
p2453
sg13
Nsg14
Nsg15
g1099
(S'\x07\xe2\t\x1a\x00\x00\x00\x00\x00\x00'
p2454
tp2455
Rp2456
sg17
Nsg18
Nsg19
Nsg20
I743
sg21
Nsa(dp2457
g2
Nsg3
Nsg5
Nsg6
Nsg7
VSURAT KETERANGAN BELUM PERPANJANG TDP DINSOS
p2458
sg9
Nsg10
Nsg11
V744 / S.4 / YPM - 1000 / I -1440
p2459
sg13
Nsg14
Nsg15
Nsg17
Nsg18
Nsg19
Nsg20
I744
sg21
Nsa(dp2460
g2
Nsg3
Nsg5
Nsg6
Nsg7
VSURAT SPONSORSHIP
p2461
sg9
Nsg10
Nsg11
V745 / S.6 / YPM - 7000 / I -1440
p2462
sg13
Nsg14
Nsg15
g1099
(S'\x07\xe2\t\x1b\x00\x00\x00\x00\x00\x00'
p2463
tp2464
Rp2465
sg17
Nsg18
Nsg19
Nsg20
I745
sg21
Nsa(dp2466
g2
Nsg3
Nsg5
Nsg6
Nsg7
VSURAT KETERANGAN AKTIVIS (ALDO)
p2467
sg9
Nsg10
Nsg11
V746 / S.4 / YPM - 5000 / I -1440
p2468
sg13
Nsg14
Nsg15
Nsg17
Nsg18
Nsg19
Nsg20
I746
sg21
Nsa(dp2469
g2
Nsg3
Nsg5
Nsg6
Nsg7
VSURAT KETERANGAN AKTIVIS (UMMI NUR ASYIFAH B.)
p2470
sg9
Nsg10
Nsg11
V747 / S.4 / YPM - 5000 / I -1440
p2471
sg13
Nsg14
Nsg15
Nsg17
Nsg18
Nsg19
Nsg20
I747
sg21
Nsa(dp2472
g2
Nsg3
Nsg5
Nsg6
Nsg7
VSURAT KETERANGAN AKTIVIS (CINTYA NURSYIFA J.S.)
p2473
sg9
Nsg10
Nsg11
V748 / S.4 / YPM - 5000 / I -1440
p2474
sg13
Nsg14
Nsg15
Nsg17
Nsg18
Nsg19
Nsg20
I748
sg21
Nsa(dp2475
g2
Nsg3
Nsg5
Nsg6
Nsg7
VBERITA ACARA SERAH TERIMA PEKERJAAN PENGADAAN DAN INSTALASI SISTEM TATA SUARA TAHAP 1 MASJID SALMAN ITB
p2476
sg9
Nsg10
Nsg11
V749 / S.4 / YPM - 2100 / I -1440
p2477
sg13
Nsg14
Nsg15
Nsg17
Nsg18
Nsg19
Nsg20
I749
sg21
Nsa(dp2478
g2
Nsg3
Nsg5
Nsg6
Nsg7
VPERMOHONAN PEMINJAMAN FASILITAS (RUANG ALSI ITB/GEDUNG SHAFIRA)
p2479
sg9
Nsg10
Nsg11
V750 / S.6 / YPM - 5000 / I -1440
p2480
sg13
Nsg14
Nsg15
g1099
(S'\x07\xe2\t\x1c\x00\x00\x00\x00\x00\x00'
p2481
tp2482
Rp2483
sg17
Nsg18
Nsg19
Nsg20
I750
sg21
Nsa(dp2484
g2
Nsg3
Nsg5
Nsg6
Nsg7
Nsg9
Nsg10
Nsg11
V751 / S... / YPM - ....... / I -1440
p2485
sg13
Nsg14
Nsg15
Nsg17
Nsg18
Nsg19
Nsg20
I751
sg21
Nsa(dp2486
g2
Nsg3
Nsg5
Nsg6
Nsg7
Nsg9
Nsg10
Nsg11
V752 / S... / YPM - ....... / I -1440
p2487
sg13
Nsg14
Nsg15
Nsg17
Nsg18
Nsg19
Nsg20
I752
sg21
Nsa(dp2488
g2
Nsg3
Nsg5
Nsg6
Nsg7
Nsg9
Nsg10
Nsg11
V753 / S....\u005c / YPM - ....... / I -1440
p2489
sg13
Nsg14
Nsg15
Nsg17
Nsg18
Nsg19
Nsg20
I753
sg21
Nsa(dp2490
g2
Nsg3
Nsg5
Nsg6
Nsg7
VPROGRES FILM IQRO 2 - MY UNIVERSE
p2491
sg9
Nsg10
Nsg11
V754 / S.2 / YPM - 5000 / I -1440
p2492
sg13
Nsg14
Nsg15
V01 Oktober 2018
p2493
sg17
Nsg18
VBU RINA NOVITA
p2494
sg19
Nsg20
I754
sg21
Nsa(dp2495
g2
Nsg3
Nsg5
Nsg6
Nsg7
g2491
sg9
Nsg10
Nsg11
V755 / S.2 / YPM - 5000 / I -1440
p2496
sg13
Nsg14
Nsg15
Nsg17
Nsg18
Nsg19
Nsg20
I755
sg21
Nsa(dp2497
g2
Nsg3
Nsg5
Nsg6
Nsg7
VSURAT PERINGATAN (SP1) - RINI SETYOWATI
p2498
sg9
Nsg10
Nsg11
V756 / S.13 / YPM - D101 / I -1440
p2499
sg13
Nsg14
Nsg15
Nsg17
Nsg18
Nsg19
Nsg20
I756
sg21
Nsa(dp2500
g2
Nsg3
Nsg5
Nsg6
Nsg7
VSERTIFIKAT SPN 34
p2501
sg9
Nsg10
Nsg11
V757 / S.4 / YPM - 4000 / I - 1440
p2502
sg13
Nsg14
Nsg15
V02 Oktober 2018
p2503
sg17
Nsg18
Nsg19
Nsg20
I757
sg21
Nsa(dp2504
g2
Nsg3
Nsg5
Nsg6
Nsg7
VSURAT KETERANGAN
p2505
sg9
Nsg10
Nsg11
V758 / S.4 / YPM - 5000 / I - 1440
p2506
sg13
Nsg14
Nsg15
Nsg17
Nsg18
VARSYAD
p2507
sg19
Nsg20
I758
sg21
Nsa(dp2508
g2
Nsg3
Nsg5
Nsg6
Nsg7
VSURAT KETERANGAN AKTIVIS (MAULIDA ZAFITRI LUBIS)
p2509
sg9
Nsg10
Nsg11
V759 / S.4 / YPM - 5000 / I - 1440
p2510
sg13
Nsg14
Nsg15
V03 Oktober 2018
p2511
sg17
Nsg18
Nsg19
Nsg20
I759
sg21
Nsa(dp2512
g2
Nsg3
Nsg5
Nsg6
Nsg7
VSURAT KETERANGAN AKTIVIS (SITI AISYA)
p2513
sg9
Nsg10
Nsg11
V760 / S.4 / YPM - 5000 / I - 1440
p2514
sg13
Nsg14
Nsg15
Nsg17
Nsg18
Nsg19
Nsg20
I760
sg21
Nsa(dp2515
g2
Nsg3
Nsg5
Nsg6
Nsg7
VSURAT KETERANGAN AKTIVIS (SUCHI REZKIA DEVI)
p2516
sg9
Nsg10
Nsg11
V761 / S.4 / YPM - 5000 / I - 1440
p2517
sg13
Nsg14
Nsg15
Nsg17
Nsg18
Nsg19
Nsg20
I761
sg21
Nsa(dp2518
g2
Nsg3
Nsg5
Nsg6
Nsg7
VSURAT KETERANGAN AKTIVIS (FAHMI RIZAL FAUZI)
p2519
sg9
Nsg10
Nsg11
V762 / S.4 / YPM - 5000 / I - 1440
p2520
sg13
Nsg14
Nsg15
Nsg17
Nsg18
Nsg19
Nsg20
I762
sg21
Nsa(dp2521
g2
Nsg3
Nsg5
Nsg6
Nsg7
g2470
sg9
Nsg10
Nsg11
V763 / S.4 / YPM - 5000 / I - 1440
p2522
sg13
Nsg14
Nsg15
Nsg17
Nsg18
Nsg19
Nsg20
I763
sg21
Nsa(dp2523
g2
Nsg3
Nsg5
Nsg6
Nsg7
VPERMOHONAN PEMBUATAN PASPOR (FAIQ IMUT AKHIROTI)
p2524
sg9
Nsg10
Nsg11
V764 / S.4 / YPM - 5000 / I - 1440
p2525
sg13
Nsg14
Nsg15
Nsg17
Nsg18
VUNIT LAYANAN PASPOR KOTA SEMARANG/KANTOR IMIGRASI KOTA SEMARANG
p2526
sg19
Nsg20
I764
sg21
Nsa(dp2527
g2
Nsg3
Nsg5
Nsg6
Nsg7
VUNDANGAN MEMBERIKAN SAMBUTAN (SYUKURAN WISUDA OKTOBER 2018)
p2528
sg9
Nsg10
Nsg11
V765 / S.7 / YPM - 5000 / I - 1440
p2529
sg13
Nsg14
Nsg15
Nsg17
Nsg18
g846
sg19
Nsg20
I765
sg21
Nsa(dp2530
g2
Nsg3
Nsg5
Nsg6
Nsg7
g1678
sg9
Nsg10
Nsg11
V766 / S.11 / YPM - D101 / I - 1440
p2531
sg13
Nsg14
Nsg15
Nsg17
Nsg18
Nsg19
Nsg20
I766
sg21
Nsa(dp2532
g2
Nsg3
Nsg5
Nsg6
Nsg7
VUNDANGAN RAPAT KOORDINASI (FORUM AKSI SALMAN ITB UNTUK BENCANA PALU)
p2533
sg9
Nsg10
Nsg11
V767 / S.7 / YPM - 2100 / I - 1440
p2534
sg13
Nsg14
Nsg15
Nsg17
Nsg18
Nsg19
Nsg20
I767
sg21
Nsa(dp2535
g2
Nsg3
Nsg5
Nsg6
Nsg7
VSURAT JALAN RIHLAH PWS KE PUNCAK DAN BOGOR
p2536
sg9
Nsg10
Nsg11
V768 / S.4 / YPM - 4300 / I - 1440
p2537
sg13
Nsg14
Nsg15
V04 Oktober 2018
p2538
sg17
Nsg18
Nsg19
Nsg20
I768
sg21
Nsa(dp2539
g2
Nsg3
Nsg5
Nsg6
Nsg7
VPERMOHONAN PRODUK UMROH
p2540
sg9
Nsg10
Nsg11
V769 / S.6 / YPM - 4400 / I - 1440
p2541
sg13
Nsg14
Nsg15
Nsg17
Nsg18
Nsg19
Nsg20
I769
sg21
Nsa(dp2542
g2
Nsg3
Nsg5
Nsg6
Nsg7
g2054
sg9
Nsg10
Nsg11
V770 / S.4 / YPM - 7000 / I - 1440
p2543
sg13
Nsg14
Nsg15
Nsg17
Nsg18
Nsg19
Nsg20
I770
sg21
Nsa(dp2544
g2
Nsg3
Nsg5
Nsg6
Nsg7
VSERTIFIKAT PRAKTIK KERJA INDUSTRI (M. JIHAD ANNAFSI N.A KH)
p2545
sg9
Nsg10
Nsg11
V771 / S.4 / YPM - 2100 / I - 1440
p2546
sg13
Nsg14
Nsg15
V08 Oktober 2018
p2547
sg17
Nsg18
Nsg19
Nsg20
I771
sg21
Nsa(dp2548
g2
Nsg3
Nsg5
Nsg6
Nsg7
VSURAT KUASA PERPANJANGAN PAJAK 1 TAHUN STNK MOBIL AMBULAN D9938AC
p2549
sg9
Nsg10
Nsg11
V772 / S.8 / YPM - D101 / II - 1440
p2550
sg13
Nsg14
Nsg15
V10 Oktober 2018
p2551
sg17
Nsg18
Nsg19
Nsg20
I772
sg21
Nsa(dp2552
g2
Nsg3
Nsg5
Nsg6
Nsg7
VPERMOHONAN DUKUNGAN
p2553
sg9
Nsg10
Nsg11
V773 / S.6 / YPM - 7000 / II - 1440
p2554
sg13
Nsg14
Nsg15
V11 Oktober 2018
p2555
sg17
Nsg18
VDIREKTUR TENAGA KEPENDIDIKAN
p2556
sg19
Nsg20
I773
sg21
Nsa(dp2557
g2
Nsg3
Nsg5
Nsg6
Nsg7
g891
sg9
Nsg10
Nsg11
V774 / S.7 / YPM - 7000 / II - 1440
p2558
sg13
Nsg14
Nsg15
Nsg17
Nsg18
Nsg19
Nsg20
I774
sg21
Nsa(dp2559
g2
Nsg3
Nsg5
Nsg6
Nsg7
VPERJANJIAN KERJA WAKTU LEPAS (YUNITA PUTRI DEWI)
p2560
sg9
Nsg10
Nsg11
V775 / S.9 / YPM - 4400 / II - 1440
p2561
sg13
Nsg14
Nsg15
V12 Oktober 2018
p2562
sg17
Nsg18
Nsg19
Nsg20
I775
sg21
Nsa(dp2563
g2
Nsg3
Nsg5
Nsg6
Nsg7
VPERJANJIAN KERJA (RIJALUDDIN)
p2564
sg9
Nsg10
Nsg11
V776 / S.9 / YPM - 2000 / II - 1440
p2565
sg13
Nsg14
Nsg15
Nsg17
Nsg18
Nsg19
Nsg20
I776
sg21
Nsa(dp2566
g2
Nsg3
Nsg5
Nsg6
Nsg7
VTANGGAAN SEWA GEDUNG (BANK MUAMALAT - 12 BULAN)
p2567
sg9
Nsg10
Nsg11
V777 / S.9 / YPM - 1000 / II - 1440
p2568
sg13
Nsg14
Nsg15
V13 Oktober 2018
p2569
sg17
Nsg18
g2078
sg19
Nsg20
I777
sg21
Nsa(dp2570
g2
Nsg3
Nsg5
Nsg6
Nsg7
VPERMOHONAN SILATURAHMI
p2571
sg9
Nsg10
Nsg11
V778 / S.6 / YPM - 5000 / II - 1440
p2572
sg13
Nsg14
Nsg15
Nsg17
Nsg18
VBPK ODED M. DANIAL (WALIKOTA BANDUNG)
p2573
sg19
Nsg20
I778
sg21
Nsa(dp2574
g2
Nsg3
Nsg5
Nsg6
Nsg7
g1832
sg9
Nsg10
Nsg11
V779 / S.4 / YPM - 5000 / II - 1440
p2575
sg13
Nsg14
Nsg15
Nsg17
Nsg18
Nsg19
Nsg20
I779
sg21
Nsa(dp2576
g2
Nsg3
Nsg5
Nsg6
Nsg7
VPERMOHONAN MAAF (KEGIATAN KARISMA)
p2577
sg9
Nsg10
Nsg11
V780 / S.16 / YPM - 2100 / II - 1440
p2578
sg13
Nsg14
Nsg15
Nsg17
Nsg18
VKAPRODI TEKNIK SIPIL ITB
p2579
sg19
Nsg20
I780
sg21
Nsa(dp2580
g2
Nsg3
Nsg5
Nsg6
Nsg7
VTANGGAPAN SURAT LUMENS COFFEE
p2581
sg9
Nsg10
Nsg11
V781 / S.16 / YPM - D100 / II - 1440
p2582
sg13
Nsg14
Nsg15
Nsg17
Nsg18
VLUMENS COFFEE
p2583
sg19
Nsg20
I781
sg21
Nsa(dp2584
g2
Nsg3
Nsg5
Nsg6
Nsg7
VUNDANGAN KAJIAN KESELAMATAN
p2585
sg9
Nsg10
Nsg11
V782 / S.7 / YPM - D100 / II - 1440
p2586
sg13
Nsg14
Nsg15
Nsg17
Nsg18
VWARGA SALMAN
p2587
sg19
Nsg20
I782
sg21
Nsa(dp2588
g2
Nsg3
Nsg5
Nsg6
Nsg7
VTANGGAPAN SURAT PT BPRS AL SALAAM (RENOVASI)
p2589
sg9
Nsg10
Nsg11
V783 / S.16 / YPM - D100 / II - 1440
p2590
sg13
Nsg14
Nsg15
Nsg17
Nsg18
VPT BPRS AL SALAAM
p2591
sg19
Nsg20
I783
sg21
Nsa(dp2592
g2
Nsg3
Nsg5
Nsg6
Nsg7
VSERTIFIKAT SAINTIKA FIESTA
p2593
sg9
Nsg10
Nsg11
V784 / S.4 / YPM - 7000 / II - 1440
p2594
sg13
Nsg14
Nsg15
Nsg17
Nsg18
Nsg19
Nsg20
I784
sg21
Nsa(dp2595
g2
Nsg3
Nsg5
Nsg6
Nsg7
VSURAT TEGURAN KARISMA
p2596
sg9
Nsg10
Nsg11
V785 / S.13 / YPM - 2100 / II - 1440
p2597
sg13
Nsg14
Nsg15
Nsg17
Nsg18
VKETUA KARISMA
p2598
sg19
Nsg20
I785
sg21
Nsa(dp2599
g2
Nsg3
Nsg5
Nsg6
Nsg7
VSURAT KUASA (PENGURUSAN KRK)
p2600
sg9
Nsg10
Nsg11
V786 / S.8 / YPM - 2100 / II - 1440
p2601
sg13
Nsg14
Nsg15
V15 Oktober 2018
p2602
sg17
Nsg18
VERI - IYAN
p2603
sg19
Nsg20
I786
sg21
Nsa(dp2604
g2
Nsg3
Nsg5
Nsg6
Nsg7
VTANGGAPAN SURAT PEMBERITAHUAN DAN PERMOHONAN DANA
p2605
sg9
Nsg10
Nsg11
V787 / S.16 / YPM - 1000 / II - 1440
p2606
sg13
Nsg14
Nsg15
Nsg17
Nsg18
g276
sg19
Nsg20
I787
sg21
Nsa(dp2607
g2
Nsg3
Nsg5
Nsg6
Nsg7
VTINDAK LANJUT SURAT PT SALMAN RASIDI SEMESTA (PEMBERITAHUAN & PERMOHONAN DANA)
p2608
sg9
Nsg10
Nsg11
V788 / S.2 / YPM - 2100 / II - 1440
p2609
sg13
Nsg14
Nsg15
Nsg17
Nsg18
VDIREKTUR BADAN WAKAF SALMAN
p2610
sg19
Nsg20
I788
sg21
Nsa(dp2611
g2
Nsg3
Nsg5
Nsg6
Nsg7
VSURAT TUGAS (FGD) - DINA SUDJANA
p2612
sg9
Nsg10
Nsg11
V789 / S.11 / YPM - B100 / II - 1440
p2613
sg13
Nsg14
Nsg15
Nsg17
Nsg18
Nsg19
Nsg20
I789
sg21
Nsa(dp2614
g2
Nsg3
Nsg5
Nsg6
Nsg7
VSURAT KUASA KE BANK BMI
p2615
sg9
Nsg10
Nsg11
V790 / S.8 / YPM - 1000 / II - 1440
p2616
sg13
Nsg14
Nsg15
V16 Oktober 2018
p2617
sg17
Nsg18
Nsg19
Nsg20
I790
sg21
Nsa(dp2618
g2
Nsg3
Nsg5
Nsg6
Nsg7
VMASA PERCOBAAN PENSIUN
p2619
sg9
Nsg10
Nsg11
V791 / S.2 / YPM - 1000 / II - 1440
p2620
sg13
Nsg14
Nsg15
Nsg17
Nsg18
Nsg19
Nsg20
I791
sg21
Nsa(dp2621
g2
Nsg3
Nsg5
Nsg6
Nsg7
VTANGGAPAN PERMOHONAN MENGINAP DI ASRAMA SALMAN
p2622
sg9
Nsg10
Nsg11
V792 / S.16 / YPM - 5000 / II - 1440
p2623
sg13
Nsg14
Nsg15
Nsg17
Nsg18
Nsg19
Nsg20
I792
sg21
Nsa(dp2624
g2
Nsg3
Nsg5
Nsg6
Nsg7
VSURAT IZIN (AISHA NURRA DATAU)
p2625
sg9
Nsg10
Nsg11
V793 / S.14 / YPM - 6300 / II - 1440
p2626
sg13
Nsg14
Nsg15
Nsg17
Nsg18
Nsg19
Nsg20
I793
sg21
Nsa(dp2627
g2
Nsg3
Nsg5
Nsg6
Nsg7
g2218
sg9
Nsg10
Nsg11
V794 / S.6 / YPM - 5000 / II - 1440
p2628
sg13
Nsg14
Nsg15
Nsg17
Nsg18
Nsg19
Nsg20
I794
sg21
Nsa(dp2629
g2
Nsg3
Nsg5
Nsg6
Nsg7
VPERMOHONAN KERJASAMA
p2630
sg9
Nsg10
Nsg11
V795 / S.6 / YPM - C100 / II - 1440
p2631
sg13
Nsg14
Nsg15
Nsg17
Nsg18
VCIMB NIAGA SYARIAH BANDUNG
p2632
sg19
Nsg20
I795
sg21
Nsa(dp2633
g2
Nsg3
Nsg5
Nsg6
Nsg7
VSURAT IZIN KUNJUNGAN
p2634
sg9
Nsg10
Nsg11
V796 / S.6 / YPM - C100 / II - 1440
p2635
sg13
Nsg14
Nsg15
Nsg17
Nsg18
VDKM DZARAUL ULUM - BATAN BANDUNG
p2636
sg19
Nsg20
I796
sg21
Nsa(dp2637
g2
Nsg3
Nsg5
Nsg6
Nsg7
VSURAT PEMBERITAHUAN PENGGANTIAN BIAYA PESAWAT A.N MAUDY KUSNARIA
p2638
sg9
Nsg10
Nsg11
V797 / S.2 / YPM - C100 / II - 1440
p2639
sg13
Nsg14
Nsg15
V17 Oktober 2018
p2640
sg17
Nsg18
Nsg19
Nsg20
I797
sg21
Nsa(dp2641
g2
Nsg3
Nsg5
Nsg6
Nsg7
g2630
sg9
Nsg10
Nsg11
V798 / S.6 / YPM - 7000 / II - 1440
p2642
sg13
Nsg14
Nsg15
Nsg17
Nsg18
VKEMENAG PROVINSI JABAR
p2643
sg19
Nsg20
I798
sg21
Nsa(dp2644
g2
Nsg3
Nsg5
Nsg6
Nsg7
VLAPORAN AUDIT KEUANGAN
p2645
sg9
Nsg10
Nsg11
V799 / S.2 / YPM - 1000 / II - 1440
p2646
sg13
Nsg14
Nsg15
Nsg17
Nsg18
Nsg19
Nsg20
I799
sg21
Nsa(dp2647
g2
Nsg3
Nsg5
Nsg6
Nsg7
g2122
sg9
Nsg10
Nsg11
V800 / S.6 / YPM - 5500 / II - 1440
p2648
sg13
Nsg14
Nsg15
Nsg17
Nsg18
g1472
sg19
Nsg20
I800
sg21
Nsa(dp2649
g2
Nsg3
Nsg5
Nsg6
Nsg7
VPENCAIRAN DANA WAKAF 50 JUTA
p2650
sg9
Nsg10
Nsg11
V801 / S.2 / YPM - 2100 / II - 1440
p2651
sg13
Nsg14
Nsg15
Nsg17
Nsg18
Nsg19
Nsg20
I801
sg21
Nsa(dp2652
g2
Nsg3
Nsg5
Nsg6
Nsg7
VRAPAT PENGURUS INTI
p2653
sg9
Nsg10
Nsg11
V802 / S.7 / YPM - 1000 / II - 1440
p2654
sg13
Nsg14
Nsg15
Nsg17
Nsg18
VNAHRUDDIN AKBAR
p2655
sg19
Nsg20
I802
sg21
Nsa(dp2656
g2
Nsg3
Nsg5
Nsg6
Nsg7
VSURAT TUGAS (PEMBIMBING IBADAH UMROH) - ANDRI MULYADI
p2657
sg9
Nsg10
Nsg11
V803 / S.11 / YPM - 2100 / II - 1440
p2658
sg13
Nsg14
Nsg15
V19 Oktober 2018
p2659
sg17
Nsg18
Nsg19
Nsg20
I803
sg21
Nsa(dp2660
g2
Nsg3
Nsg5
Nsg6
Nsg7
VPENGANTAR LAPORAN AUDIT KEUANGAN YPM SALMAN ITB 2014-2017
p2661
sg9
Nsg10
Nsg11
V804 / S.10 / YPM - 1000 / II - 1440
p2662
sg13
Nsg14
Nsg15
V20 Oktober 2018
p2663
sg17
Nsg18
g846
sg19
Nsg20
I804
sg21
Nsa(dp2664
g2
Nsg3
Nsg5
Nsg6
Nsg7
Nsg9
Nsg10
Nsg11
V805 / S.- / YPM - ---- / II - 1440
p2665
sg13
Nsg14
Nsg15
Nsg17
Nsg18
Nsg19
Nsg20
I805
sg21
Nsa(dp2666
g2
Nsg3
Nsg5
Nsg6
Nsg7
g116
sg9
Nsg10
Nsg11
V806 / S.6 / YPM - C100 / II - 1440
p2667
sg13
Nsg14
Nsg15
V22 Oktober 2018
p2668
sg17
Nsg18
Nsg19
Nsg20
I806
sg21
Nsa(dp2669
g2
Nsg3
Nsg5
Nsg6
Nsg7
VSERTIFIKAT PRAKTIK KERJA INDUSTRI (ARI RADIANSAH)
p2670
sg9
Nsg10
Nsg11
V807 / S.4 / YPM - 2100 / II - 1440
p2671
sg13
Nsg14
Nsg15
Nsg17
Nsg18
Nsg19
Nsg20
I807
sg21
Nsa(dp2672
g2
Nsg3
Nsg5
Nsg6
Nsg7
VSERTIFIKAT PRAKTIK KERJA INDUSTRI (GUMELAR ARDHI NASRULLOH)
p2673
sg9
Nsg10
Nsg11
V808 / S.4 / YPM - 2100 / II - 1440
p2674
sg13
Nsg14
Nsg15
Nsg17
Nsg18
Nsg19
Nsg20
I808
sg21
Nsa(dp2675
g2
Nsg3
Nsg5
Nsg6
Nsg7
VSERTIFIKAT PRAKTIK KERJA INDUSTRI (MUHAMAD IQBAL)
p2676
sg9
Nsg10
Nsg11
V809 / S.4 / YPM - 2100 / II - 1440
p2677
sg13
Nsg14
Nsg15
Nsg17
Nsg18
Nsg19
Nsg20
I809
sg21
Nsa(dp2678
g2
Nsg3
Nsg5
Nsg6
Nsg7
VSURAT TUGAS MARKETING UMROH (KELANA PURNAMA SARI)
p2679
sg9
Nsg10
Nsg11
V810 / S.11 / YPM - 2100 / II - 1440
p2680
sg13
Nsg14
Nsg15
Nsg17
Nsg18
Nsg19
Nsg20
I810
sg21
Nsa(dp2681
g2
Nsg3
Nsg5
Nsg6
Nsg7
VSURAT PERINTAH KERJA (SPK) TERJEMAHAN (YEDI - MISRAN)
p2682
sg9
Nsg10
Nsg11
V811 / S.11 / YPM - 4000 / II - 1440
p2683
sg13
Nsg14
Nsg15
V23 Oktober 2018
p2684
sg17
Nsg18
Nsg19
Nsg20
I811
sg21
Nsa(dp2685
g2
Nsg3
Nsg5
Nsg6
Nsg7
VPERMOHONAN PEMINJAMAN FASILITAS - AULA TEKNIK SIPIL ITB (BMKA)
p2686
sg9
Nsg10
Nsg11
V812 / S.6 / YPM - 5000 / II - 1440
p2687
sg13
Nsg14
Nsg15
Nsg17
Nsg18
Nsg19
Nsg20
I812
sg21
Nsa(dp2688
g2
Nsg3
Nsg5
Nsg6
Nsg7
VSERTIFIKAT TAHSIN
p2689
sg9
Nsg10
Nsg11
V813 / S.4 / YPM - 4000 / II - 1440
p2690
sg13
Nsg14
Nsg15
V24 Oktober 2018
p2691
sg17
Nsg18
Nsg19
Nsg20
I813
sg21
Nsa(dp2692
g2
Nsg3
Nsg5
Nsg6
Nsg7
VSERTIFIKAT SSC 17
p2693
sg9
Nsg10
Nsg11
V814 / S.4 / YPM - 5000 / II - 1440
p2694
sg13
Nsg14
Nsg15
Nsg17
Nsg18
Nsg19
Nsg20
I814
sg21
Nsa(dp2695
g2
Nsg3
Nsg5
Nsg6
Nsg7
VPERMOHONAN PEMATERI SSC 17
p2696
sg9
Nsg10
Nsg11
V815 / S.6 / YPM - 5000 / II - 1440
p2697
sg13
Nsg14
Nsg15
Nsg17
Nsg18
Nsg19
Nsg20
I815
sg21
Nsa(dp2698
g2
Nsg3
Nsg5
Nsg6
Nsg7
VSURAT IZIN PESERTA
p2699
sg9
Nsg10
Nsg11
V816 / S.14 / YPM - 5000 / II - 1440
p2700
sg13
Nsg14
Nsg15
Nsg17
Nsg18
Nsg19
Nsg20
I816
sg21
Nsa(dp2701
g2
Nsg3
Nsg5
Nsg6
Nsg7
VSURAT PERMOHONAN KERJASAMA SEMINAR NASIONAL STEM
p2702
sg9
Nsg10
Nsg11
V817 / S.6 / YPM - 7000 / II - 1440
p2703
sg13
Nsg14
Nsg15
V26 Oktober 2018
p2704
sg17
Nsg18
Nsg19
Nsg20
I817
sg21
Nsa(dp2705
g2
Nsg3
Nsg5
Nsg6
Nsg7
VSERITIFIKAT SPONSOR SAINTIKA
p2706
sg9
Nsg10
Nsg11
V818 / S.4 / YPM - 7000 / II - 1440
p2707
sg13
Nsg14
Nsg15
Nsg17
Nsg18
Nsg19
Nsg20
I818
sg21
Nsa(dp2708
g2
Nsg3
Nsg5
Nsg6
Nsg7
Nsg9
Nsg10
Nsg11
V819 / S.- / YPM - ---- / II - 1440
p2709
sg13
Nsg14
Nsg15
Nsg17
Nsg18
Nsg19
Nsg20
I819
sg21
Nsa(dp2710
g2
Nsg3
Nsg5
Nsg6
Nsg7
Nsg9
Nsg10
Nsg11
V820 / S.- / YPM - ---- / II - 1440
p2711
sg13
Nsg14
Nsg15
Nsg17
Nsg18
Nsg19
Nsg20
I820
sg21
Nsa(dp2712
g2
Nsg3
Nsg5
Nsg6
Nsg7
VUCAPAN TERIMA KASIH KABUPATEN SIAK (PEMUTARAN FILM IQRO - PETUALANGAN MERAIH BINTANG)
p2713
sg9
Nsg10
Nsg11
V821 / S.4 / YPM - 6300 / II - 1440
p2714
sg13
Nsg14
Nsg15
V28 Oktober 2018
p2715
sg17
Nsg18
Nsg19
Nsg20
I821
sg21
Nsa(dp2716
g2
Nsg3
Nsg5
Nsg6
Nsg7
VSURAT TUGAS (FGD) - TIAN SUMARNA
p2717
sg9
Nsg10
Nsg11
V822 / S.11 / YPM - 2100 / II - 1440
p2718
sg13
Nsg14
Nsg15
V29 Oktober 2018
p2719
sg17
Nsg18
Nsg19
Nsg20
I822
sg21
Nsa(dp2720
g2
Nsg3
Nsg5
Nsg6
Nsg7
g2612
sg9
Nsg10
Nsg11
V823 / S.11 / YPM - B100 / II - 1440
p2721
sg13
Nsg14
Nsg15
Nsg17
Nsg18
Nsg19
Nsg20
I823
sg21
Nsa(dp2722
g2
Nsg3
Nsg5
Nsg6
Nsg7
VSE ATURAN PEMBUKAAN STAND/BOOTH
p2723
sg9
Nsg10
Nsg11
V824 / S.3 / YPM - 2100 / II - 1440
p2724
sg13
Nsg14
Nsg15
Nsg17
Nsg18
Nsg19
Nsg20
I824
sg21
Nsa(dp2725
g2
Nsg3
Nsg5
Nsg6
Nsg7
VSILATURAHMI DAN PERMOHONAN MAAF
p2726
sg9
Nsg10
Nsg11
V825 / S.2 / YPM - 2100 / II - 1440
p2727
sg13
Nsg14
Nsg15
Nsg17
Nsg18
VUSTADZ HAIKAL HASAN
p2728
sg19
Nsg20
I825
sg21
Nsa(dp2729
g2
Nsg3
Nsg5
Nsg6
Nsg7
g1037
sg9
Nsg10
Nsg11
V826 / S.4 / YPM - 4000 / II - 1440
p2730
sg13
Nsg14
Nsg15
Nsg17
Nsg18
VMARIA PRADNYA PARAMITA
p2731
sg19
Nsg20
I826
sg21
Nsa(dp2732
g2
Nsg3
Nsg5
Nsg6
Nsg7
g985
sg9
Nsg10
Nsg11
V827 / S.7 / YPM - 7000 / II - 1440
p2733
sg13
Nsg14
Nsg15
Nsg17
Nsg18
Nsg19
Nsg20
I827
sg21
Nsa(dp2734
g2
Nsg3
g862
sg5
Nsg6
Nsg7
VSURAT TUGAS - DINA SUDJANA & KHAIRIAH (WORKSHOP STANDAR AKREDITASI LPH)
p2735
sg9
Nsg10
Nsg11
V828 / S.11 / YPM - 7000 / II - 1440
p2736
sg13
Nsg14
Nsg15
g1099
(S'\x07\xe2\x0b\x01\x00\x00\x00\x00\x00\x00'
p2737
tp2738
Rp2739
sg17
Nsg18
Nsg19
Nsg20
I828
sg21
Nsa(dp2740
g2
Nsg3
Nsg5
Nsg6
Nsg7
g1678
sg9
Nsg10
Nsg11
V829 / S.11 / YPM - D101 / II - 1440
p2741
sg13
Nsg14
Nsg15
g1099
(S'\x07\xe2\x0b\x02\x00\x00\x00\x00\x00\x00'
p2742
tp2743
Rp2744
sg17
Nsg18
Nsg19
Nsg20
I829
sg21
Nsa(dp2745
g2
Nsg3
Nsg5
Nsg6
Nsg7
VSURAT IZIN STAND
p2746
sg9
Nsg10
Nsg11
V830 / S.6 / YPM - C100 / II - 1440
p2747
sg13
Nsg14
Nsg15
Nsg17
Nsg18
VDKM PDAM
p2748
sg19
Nsg20
I830
sg21
Nsa(dp2749
g2
Nsg3
Nsg5
Nsg6
Nsg7
g2008
sg9
Nsg10
Nsg11
V831 / S.6 / YPM - C100 / II - 1440
p2750
sg13
Nsg14
Nsg15
Nsg17
Nsg18
VM. RIDWAN KAMIL (GUBERNUR JABAR)
p2751
sg19
Nsg20
I831
sg21
Nsa(dp2752
g2
Nsg3
Nsg5
Nsg6
Nsg7
VSK TIM REDAKSI JURNAL SALMAN ITB
p2753
sg9
Nsg10
Nsg11
V832 / S.1 / YPM - 1000 / II - 1440
p2754
sg13
Nsg14
Nsg15
Nsg17
Nsg18
Nsg19
Nsg20
I832
sg21
Nsa(dp2755
g2
Nsg3
g23
sg5
Nsg6
Nsg7
g2735
sg9
Nsg10
Nsg11
V833 / S.1 / YPM - 1000 / II - 1440
p2756
sg13
Nsg14
Nsg15
Nsg17
Nsg18
Nsg19
Nsg20
I833
sg21
Nsa(dp2757
g2
Nsg3
Nsg5
Nsg6
Nsg7
VUNDANGAN PESERTA PRABIMBINGAN MANASIK HAJI
p2758
sg9
Nsg10
Nsg11
V834 / S.7 / YPM - 4400 / II - 1440
p2759
sg13
Nsg14
Nsg15
g1099
(S'\x07\xe2\x0b\x05\x00\x00\x00\x00\x00\x00'
p2760
tp2761
Rp2762
sg17
Nsg18
Nsg19
Nsg20
I834
sg21
Nsa(dp2763
g2
Nsg3
Nsg5
Nsg6
Nsg7
VMASA AKHIR KERJA (ATIN DWI CAHYA)
p2764
sg9
Nsg10
Nsg11
V835 / S.2 / YPM - D100 / II - 1440
p2765
sg13
Nsg14
Nsg15
g1099
(S'\x07\xe2\x0b\x07\x00\x00\x00\x00\x00\x00'
p2766
tp2767
Rp2768
sg17
Nsg18
Nsg19
Nsg20
I835
sg21
Nsa(dp2769
g2
Nsg3
Nsg5
Nsg6
Nsg7
VPERMOHONAN PEMINJAMAN FASILITAS - TAMAN GANESHA (KARISMA)
p2770
sg9
Nsg10
Nsg11
V836 / S.6 / YPM - 5400 / II - 1440
p2771
sg13
Nsg14
Nsg15
Nsg17
Nsg18
Nsg19
Nsg20
I836
sg21
Nsa(dp2772
g2
Nsg3
Nsg5
Nsg6
Nsg7
VPERMOHONAN PEMINJAMAN FASILITAS - MASJID AL-JABBAR (BADAN WAKAF SALMAN)
p2773
sg9
Nsg10
Nsg11
V837 / S.6 / YPM - C100 / II - 1440
p2774
sg13
Nsg14
Nsg15
Nsg17
Nsg18
Nsg19
Nsg20
I837
sg21
Nsa(dp2775
g2
Nsg3
Nsg5
Nsg6
Nsg7
VSK KEPALA SEKOLAH PAUD KHAIRINA (DEWI RISNA KOMALASARI)
p2776
sg9
Nsg10
Nsg11
V838 / S.1 / YPM - 1000 / II - 1440
p2777
sg13
Nsg14
Nsg15
Nsg17
Nsg18
Nsg19
Nsg20
I838
sg21
Nsa(dp2778
g2
Nsg3
Nsg5
Nsg6
Nsg7
VSK GURU PAUD KHAIRINA (NENG JUWITA)
p2779
sg9
Nsg10
Nsg11
V839 / S.1 / YPM - 1000 / II - 1440
p2780
sg13
Nsg14
Nsg15
Nsg17
Nsg18
Nsg19
Nsg20
I839
sg21
Nsa(dp2781
g2
Nsg3
Nsg5
Nsg6
Nsg7
VSK GURU PAUD KHAIRINA (WINARTI)
p2782
sg9
Nsg10
Nsg11
V840 / S.1 / YPM - 1000 / II - 1440
p2783
sg13
Nsg14
Nsg15
Nsg17
Nsg18
Nsg19
Nsg20
I840
sg21
Nsa(dp2784
g2
Nsg3
Nsg5
Nsg6
Nsg7
VSK GURU PAUD KHAIRINA (TRIYANI NURIAH)
p2785
sg9
Nsg10
Nsg11
V841 / S.1 / YPM - 1000 / II - 1440
p2786
sg13
Nsg14
Nsg15
Nsg17
Nsg18
Nsg19
Nsg20
I841
sg21
Nsa(dp2787
g2
Nsg3
Nsg5
Nsg6
Nsg7
VSK GURU PAUD KHAIRINA (APON WIDANINGSIH)
p2788
sg9
Nsg10
Nsg11
V842 / S.1 / YPM - 1000 / II - 1440
p2789
sg13
Nsg14
Nsg15
Nsg17
Nsg18
Nsg19
Nsg20
I842
sg21
Nsa(dp2790
g2
Nsg3
Nsg5
Nsg6
Nsg7
VSK GURU PAUD KHAIRINA (DEWI KOMALASARI)
p2791
sg9
Nsg10
Nsg11
V843 / S.1 / YPM - 1000 / II - 1440
p2792
sg13
Nsg14
Nsg15
Nsg17
Nsg18
Nsg19
Nsg20
I843
sg21
Nsa(dp2793
g2
Nsg3
Nsg5
Nsg6
Nsg7
VSK KEPALA SEKOLAH MDA KHAIRINA (DEWI RISNA KOMALASARI)
p2794
sg9
Nsg10
Nsg11
V844 / S.1 / YPM - 1000 / II - 1440
p2795
sg13
Nsg14
Nsg15
Nsg17
Nsg18
Nsg19
Nsg20
I844
sg21
Nsa(dp2796
g2
Nsg3
Nsg5
Nsg6
Nsg7
VSK GURU MDA KHAIRINA (NENG KARTINI)
p2797
sg9
Nsg10
Nsg11
V845 / S.1 / YPM - 1000 / II - 1440
p2798
sg13
Nsg14
Nsg15
Nsg17
Nsg18
Nsg19
Nsg20
I845
sg21
Nsa(dp2799
g2
Nsg3
Nsg5
Nsg6
Nsg7
VSK GURU MDA KHAIRINA (NENG SUMINAR)
p2800
sg9
Nsg10
Nsg11
V846 / S.1 / YPM - 1000 / II - 1440
p2801
sg13
Nsg14
Nsg15
Nsg17
Nsg18
Nsg19
Nsg20
I846
sg21
Nsa(dp2802
g2
Nsg3
Nsg5
Nsg6
Nsg7
VSK GURU MDA KHAIRINA (SUMIATI)
p2803
sg9
Nsg10
Nsg11
V847 / S.1 / YPM - 1000 / II - 1440
p2804
sg13
Nsg14
Nsg15
Nsg17
Nsg18
Nsg19
Nsg20
I847
sg21
Nsa(dp2805
g2
Nsg3
Nsg5
Nsg6
Nsg7
VSK GURU MDA KHAIRINA (KARTIKA)
p2806
sg9
Nsg10
Nsg11
V848 / S.1 / YPM - 1000 / II - 1440
p2807
sg13
Nsg14
Nsg15
Nsg17
Nsg18
Nsg19
Nsg20
I848
sg21
Nsa(dp2808
g2
Nsg3
Nsg5
Nsg6
Nsg7
VSK GURU MDA KHAIRINA (ACENG SAEFUDIN)
p2809
sg9
Nsg10
Nsg11
V849 / S.1 / YPM - 1000 / II - 1440
p2810
sg13
Nsg14
Nsg15
Nsg17
Nsg18
Nsg19
Nsg20
I849
sg21
Nsa(dp2811
g2
Nsg3
Nsg5
Nsg6
Nsg7
VSK GURU MDA KHAIRINA (TEUKU FARID)
p2812
sg9
Nsg10
Nsg11
V850 / S.1 / YPM - 1000 / II - 1440
p2813
sg13
Nsg14
Nsg15
Nsg17
Nsg18
Nsg19
Nsg20
I850
sg21
Nsa(dp2814
g2
Nsg3
Nsg5
Nsg6
Nsg7
VAUDIENSI
p2815
sg9
Nsg10
Nsg11
V851 / S.6 / YPM - 7000 / II - 1440
p2816
sg13
Nsg14
Nsg15
g1099
(S'\x07\xe2\x0b\x08\x00\x00\x00\x00\x00\x00'
p2817
tp2818
Rp2819
sg17
Nsg18
Nsg19
Nsg20
I851
sg21
Nsa(dp2820
g2
Nsg3
Nsg5
Nsg6
Nsg7
g1687
sg9
Nsg10
Nsg11
V852 / S.6 / YPM - 7000 / II - 1440
p2821
sg13
Nsg14
Nsg15
Nsg17
Nsg18
Nsg19
Nsg20
I852
sg21
Nsa(dp2822
g2
Nsg3
Nsg5
Nsg6
Nsg7
VSURAT REKOMENDASI
p2823
sg9
Nsg10
Nsg11
V853 / S.5 / YPM - 7000 / II - 1440
p2824
sg13
Nsg14
Nsg15
Nsg17
Nsg18
Nsg19
Nsg20
I853
sg21
Nsa(dp2825
g2
Nsg3
Nsg5
Nsg6
Nsg7
g1269
sg9
Nsg10
Nsg11
V854 / S.6 / YPM - 7000 / II - 1440
p2826
sg13
Nsg14
Nsg15
Nsg17
Nsg18
Nsg19
Nsg20
I854
sg21
Nsa(dp2827
g2
Nsg3
Nsg5
Nsg6
Nsg7
VPERMOHONAN KUNJUNGAN (SANLAT PESANTREN LIBURAN)
p2828
sg9
Nsg10
Nsg11
V855 / S.6 / YPM - C100 / III - 1440
p2829
sg13
Nsg14
Nsg15
g1099
(S'\x07\xe2\x0b\x0c\x00\x00\x00\x00\x00\x00'
p2830
tp2831
Rp2832
sg17
Nsg18
VDIRUT PD KEBERSIHAN KOTA BANDUNG
p2833
sg19
Nsg20
I855
sg21
Nsa(dp2834
g2
Nsg3
Nsg5
Nsg6
Nsg7
g2828
sg9
Nsg10
Nsg11
V856 / S.6 / YPM - C100 / III - 1440
p2835
sg13
Nsg14
Nsg15
Nsg17
Nsg18
VDIREKTUR PDAM KOTA BANDUNG
p2836
sg19
Nsg20
I856
sg21
Nsa(dp2837
g2
Nsg3
Nsg5
Nsg6
Nsg7
VPERMOHONAN PEMINJAMAN FASILITAS - TAMAN GANESHA (SANLAT PESANTREN LIBURAN)
p2838
sg9
Nsg10
Nsg11
V857 / S.6 / YPM - C100 / III - 1440
p2839
sg13
Nsg14
Nsg15
Nsg17
Nsg18
Nsg19
Nsg20
I857
sg21
Nsa(dp2840
g2
Nsg3
Nsg5
Nsg6
Nsg7
VSURAT KETERANGAN DOMISILI (PT PUSAT STUDI URBAN DESAIN - PSUD) - SERTIFIKAT
p2841
sg9
Nsg10
Nsg11
V858 / S.4 / YPM - 1000 / III - 1440
p2842
sg13
Nsg14
Nsg15
g1099
(S'\x07\xe2\x0b\r\x00\x00\x00\x00\x00\x00'
p2843
tp2844
Rp2845
sg17
Nsg18
Nsg19
Nsg20
I858
sg21
Nsa(dp2846
g2
Nsg3
Nsg5
Nsg6
Nsg7
VSURAT KETERANGAN DOMISILI (PT PUSAT STUDI URBAN DESAIN - PSUD) - PBB
p2847
sg9
Nsg10
Nsg11
V859 / S.4 / YPM - 1000 / III - 1440
p2848
sg13
Nsg14
Nsg15
Nsg17
Nsg18
Nsg19
Nsg20
I859
sg21
Nsa(dp2849
g2
Nsg3
Nsg5
Nsg6
Nsg7
VSURAT TUGAS (FGD) - WAWAN SETIAWAN
p2850
sg9
Nsg10
Nsg11
V860 / S.11 / YPM - 2100 / III - 1440
p2851
sg13
Nsg14
Nsg15
Nsg17
Nsg18
Nsg19
Nsg20
I860
sg21
Nsa(dp2852
g2
Nsg3
Nsg5
Nsg6
Nsg7
g380
sg9
Nsg10
Nsg11
V861 / S.2 / YPM - D100 / III - 1440
p2853
sg13
Nsg14
Nsg15
Nsg17
Nsg18
g73
sg19
Nsg20
I861
sg21
Nsa(dp2854
g2
Nsg3
Nsg5
Nsg6
Nsg7
g380
sg9
Nsg10
Nsg11
V862 / S.2 / YPM - D100 / III - 1440
p2855
sg13
Nsg14
Nsg15
Nsg17
Nsg18
g52
sg19
Nsg20
I862
sg21
Nsa(dp2856
g2
Nsg3
Nsg5
Nsg6
Nsg7
g380
sg9
Nsg10
Nsg11
V863 / S.2 / YPM - D100 / III - 1440
p2857
sg13
Nsg14
Nsg15
Nsg17
Nsg18
VRAGAM FRISTA
p2858
sg19
Nsg20
I863
sg21
Nsa(dp2859
g2
Nsg3
Nsg5
Nsg6
Nsg7
g380
sg9
Nsg10
Nsg11
V864 / S.2 / YPM - D100 / III - 1440
p2860
sg13
Nsg14
Nsg15
Nsg17
Nsg18
VDEDY KURNIAWAN NASUTION
p2861
sg19
Nsg20
I864
sg21
Nsa(dp2862
g2
Nsg3
Nsg5
Nsg6
Nsg7
g380
sg9
Nsg10
Nsg11
V865 / S.2 / YPM - D100 / III - 1440
p2863
sg13
Nsg14
Nsg15
Nsg17
Nsg18
g580
sg19
Nsg20
I865
sg21
Nsa(dp2864
g2
Nsg3
Nsg5
Nsg6
Nsg7
g384
sg9
Nsg10
Nsg11
V866 / S.2 / YPM - D100 / III - 1440
p2865
sg13
Nsg14
Nsg15
Nsg17
Nsg18
VTENANT SAYAP SELATAN
p2866
sg19
Nsg20
I866
sg21
Nsa(dp2867
g2
Nsg3
Nsg5
Nsg6
Nsg7
VSK PEMBENTUKAN TIM ASESOR YPM SALMAN ITB
p2868
sg9
Nsg10
Nsg11
V867 / S.1 / YPM - 1000 / III - 1440
p2869
sg13
Nsg14
Nsg15
Nsg17
Nsg18
Nsg19
Nsg20
I867
sg21
Nsa(dp2870
g2
Nsg3
Nsg5
Nsg6
Nsg7
g1926
sg9
Nsg10
Nsg11
V868 / S.6 / YPM - C100 / III - 1440
p2871
sg13
Nsg14
Nsg15
Nsg17
Nsg18
VBSM CABANG DAGO
p2872
sg19
Nsg20
I868
sg21
Nsa(dp2873
g2
Nsg3
Nsg5
Nsg6
Nsg7
g1926
sg9
Nsg10
Nsg11
V869 / S.6 / YPM - C100 / III - 1440
p2874
sg13
Nsg14
Nsg15
Nsg17
Nsg18
VBANK MUAMALAT KCP SALMAN
p2875
sg19
Nsg20
I869
sg21
Nsa(dp2876
g2
Nsg3
Nsg5
Nsg6
Nsg7
g1926
sg9
Nsg10
Nsg11
V870 / S.6 / YPM - C100 / III - 1440
p2877
sg13
Nsg14
Nsg15
Nsg17
Nsg18
VBNI PTB BANDUNG
p2878
sg19
Nsg20
I870
sg21
Nsa(dp2879
g2
Nsg3
Nsg5
Nsg6
Nsg7
g1926
sg9
Nsg10
Nsg11
V871 / S.6 / YPM - C100 / III - 1440
p2880
sg13
Nsg14
Nsg15
Nsg17
Nsg18
VBCA CABANG DAGO
p2881
sg19
Nsg20
I871
sg21
Nsa(dp2882
g2
Nsg3
Nsg5
Nsg6
Nsg7
g1926
sg9
Nsg10
Nsg11
V872 / S.6 / YPM - C100 / III - 1440
p2883
sg13
Nsg14
Nsg15
Nsg17
Nsg18
VBANK MANDIRI KC SURAPATI
p2884
sg19
Nsg20
I872
sg21
Nsa(dp2885
g2
Nsg3
Nsg5
Nsg6
Nsg7
VSURAT TUGAS NARASUMBER TALKSHOW STANDARDISASI & GAYA HIDUP RAMAH LINGKUNGAN
p2886
sg9
Nsg10
Nsg11
V873 / S.11 / YPM - 2100 / III - 1440
p2887
sg13
Nsg14
Nsg15
g1099
(S'\x07\xe2\x0b\x0e\x00\x00\x00\x00\x00\x00'
p2888
tp2889
Rp2890
sg17
Nsg18
Nsg19
Nsg20
I873
sg21
Nsa(dp2891
g2
Nsg3
Nsg5
Nsg6
Nsg7
VSE RENCANA PELATIHAN DAN PENGEMBANGAN KARYAWAN SALMAN ITB
p2892
sg9
Nsg10
Nsg11
V874 / S.3 / YPM - D101 / III - 1440
p2893
sg13
Nsg14
Nsg15
Nsg17
Nsg18
Nsg19
Nsg20
I874
sg21
Nsa(dp2894
g2
Nsg3
Nsg5
Nsg6
Nsg7
g1231
sg9
Nsg10
Nsg11
V875 / S.7 / YPM - 0000 / III - 1440
p2895
sg13
Nsg14
Nsg15
g1099
(S'\x07\xe2\x0b\x0f\x00\x00\x00\x00\x00\x00'
p2896
tp2897
Rp2898
sg17
Nsg18
Nsg19
Nsg20
I875
sg21
Nsa(dp2899
g2
Nsg3
Nsg5
Nsg6
Nsg7
g1413
sg9
Nsg10
Nsg11
V876 / S.4 / YPM - 7000 / III - 1440
p2900
sg13
Nsg14
Nsg15
Nsg17
Nsg18
Nsg19
Nsg20
I876
sg21
Nsa(dp2901
g2
Nsg3
Nsg5
Nsg6
Nsg7
VTANGGAPAN SURAT BMKA
p2902
sg9
Nsg10
Nsg11
V877 / S.16 / YPM - D100 / III - 1440
p2903
sg13
Nsg14
Nsg15
Nsg17
Nsg18
Nsg19
Nsg20
I877
sg21
Nsa(dp2904
g2
Nsg3
Nsg5
Nsg6
Nsg7
VPERMOHONAN PEMINJAMAN TEMPAT (MASJID LIPI) - ACARA KK BMKA
p2905
sg9
Nsg10
Nsg11
V878 / S.6 / YPM - 5000 / III - 1440
p2906
sg13
Nsg14
Nsg15
g1099
(S'\x07\xe2\x0b\x10\x00\x00\x00\x00\x00\x00'
p2907
tp2908
Rp2909
sg17
Nsg18
Nsg19
Nsg20
I878
sg21
Nsa(dp2910
g2
Nsg3
Nsg5
Nsg6
Nsg7
VPERMOHONAN KERJA SAMA - FILM IQRO' MY UNIVERSE
p2911
sg9
Nsg10
Nsg11
V879 / S.6 / YPM - 6300 / III - 1440
p2912
sg13
Nsg14
Nsg15
Nsg17
Nsg18
VPEMIMPIN DIVISI CORPORATE SECRETARY BJB
p2913
sg19
Nsg20
I879
sg21
Nsa(dp2914
g2
Nsg3
Nsg5
Nsg6
Nsg7
VSURAT DUKUNGAN FILM IQRO - MY UNIVERSE
p2915
sg9
Nsg10
Nsg11
V880 / S.6 / YPM - 6300 / III - 1440
p2916
sg13
Nsg14
Nsg15
Nsg17
Nsg18
g1103
sg19
Nsg20
I880
sg21
Nsa(dp2917
g2
Nsg3
Nsg5
Nsg6
Nsg7
g406
sg9
Nsg10
Nsg11
V881 / S.6 / YPM - 5000 / III - 1440
p2918
sg13
Nsg14
Nsg15
Nsg17
Nsg18
Nsg19
Nsg20
I881
sg21
Nsa(dp2919
g2
Nsg3
Nsg5
Nsg6
Nsg7
VSE FOGGING
p2920
sg9
Nsg10
Nsg11
V882 / S.3 / YPM - D101 / III - 1440
p2921
sg13
Nsg14
Nsg15
g1099
(S'\x07\xe2\x0b\x13\x00\x00\x00\x00\x00\x00'
p2922
tp2923
Rp2924
sg17
Nsg18
Nsg19
Nsg20
I882
sg21
Nsa(dp2925
g2
Nsg3
Nsg5
Nsg6
Nsg7
VUCAPAN TAKZIYAH (IBU HARINI AGUSTINA KAMAL)
p2926
sg9
Nsg10
Nsg11
V883 / S.12 / YPM - 1000 / III - 1440
p2927
sg13
Nsg14
Nsg15
Nsg17
Nsg18
Nsg19
Nsg20
I883
sg21
Nsa(dp2928
g2
Nsg3
Nsg5
Nsg6
Nsg7
VUCAPAN TAKZIYAH (IBU INAYAH FATMA KURNIA)
p2929
sg9
Nsg10
Nsg11
V884 / S.12 / YPM - 1000 / III - 1440
p2930
sg13
Nsg14
Nsg15
Nsg17
Nsg18
Nsg19
Nsg20
I884
sg21
Nsa(dp2931
g2
Nsg3
Nsg5
Nsg6
Nsg7
VSURAT TUGAS NARASUMBER SEMINAR TTG JAMINAN PRODUK HALAL (UIN SYARIF HIDAYATULLAH)
p2932
sg9
Nsg10
Nsg11
V885 / S.11 / YPM - B100 / III - 1440
p2933
sg13
Nsg14
Nsg15
Nsg17
Nsg18
Nsg19
Nsg20
I885
sg21
Nsa(dp2934
g2
Nsg3
Nsg5
Nsg6
Nsg7
VPERJANJIAN JUAL BELI SOFTWARE EPAPERDOC
p2935
sg9
Nsg10
Nsg11
V886 / S.9 / YPM - 2000 / III - 1440
p2936
sg13
Nsg14
Nsg15
Nsg17
Nsg18
Nsg19
Nsg20
I886
sg21
Nsa(dp2937
g2
Nsg3
Nsg5
Nsg6
Nsg7
g2122
sg9
Nsg10
Nsg11
V887 / S.6 / YPM - 5500 / III - 1440
p2938
sg13
Nsg14
Nsg15
Nsg17
Nsg18
g1472
sg19
Nsg20
I887
sg21
Nsa(dp2939
g2
Nsg3
Nsg5
Nsg6
Nsg7
VPERMOHONAN NARASUMBER ACARA SEMINAR
p2940
sg9
Nsg10
Nsg11
V888 / S.6 / YPM - 7000 / III - 1440
p2941
sg13
Nsg14
Nsg15
g1099
(S'\x07\xe2\x0b\x15\x00\x00\x00\x00\x00\x00'
p2942
tp2943
Rp2944
sg17
Nsg18
Nsg19
Nsg20
I888
sg21
Nsa(dp2945
g2
Nsg3
Nsg5
Nsg6
Nsg7
g2940
sg9
Nsg10
Nsg11
V889 / S.6 / YPM - 7000 / III - 1440
p2946
sg13
Nsg14
Nsg15
Nsg17
Nsg18
Nsg19
Nsg20
I889
sg21
Nsa(dp2947
g2
Nsg3
Nsg5
Nsg6
Nsg7
VPERMOHONAN SPONSORSHIP
p2948
sg9
Nsg10
Nsg11
V890 / S.6 / YPM - 7000 / III - 1440
p2949
sg13
Nsg14
Nsg15
Nsg17
Nsg18
Nsg19
Nsg20
I890
sg21
Nsa(dp2950
g2
Nsg3
Nsg5
Nsg6
Nsg7
VPERMOHONAN DANA (JULEHA)
p2951
sg9
Nsg10
Nsg11
V891 / S.6 / YPM - B100 / III - 1440
p2952
sg13
Nsg14
Nsg15
g1099
(S'\x07\xe2\x0b\x16\x00\x00\x00\x00\x00\x00'
p2953
tp2954
Rp2955
sg17
Nsg18
Nsg19
Nsg20
I891
sg21
Nsa(dp2956
g2
Nsg3
Nsg5
Nsg6
Nsg7
VPERMOHONAN IZIN KUNJUNGAN
p2957
sg9
Nsg10
Nsg11
V892 / S.6 / YPM - 5000 / III - 1440
p2958
sg13
Nsg14
Nsg15
Nsg17
Nsg18
VBILLIONAIRE STORE
p2959
sg19
Nsg20
I892
sg21
Nsa(dp2960
g2
Nsg3
Nsg5
Nsg6
Nsg7
VJAWABAN PENGUNDURAN DIRI (ATIN DWI CAHYA)
p2961
sg9
Nsg10
Nsg11
V893 / S.16 / YPM - D100 / III - 1440
p2962
sg13
Nsg14
Nsg15
g1099
(S'\x07\xe2\x0b\x17\x00\x00\x00\x00\x00\x00'
p2963
tp2964
Rp2965
sg17
Nsg18
VATIN DWI CAHYA
p2966
sg19
Nsg20
I893
sg21
Nsa(dp2967
g2
Nsg3
Nsg5
Nsg6
Nsg7
VEDARAN HARI LIBUR NASIONAL DAN CUTI BERSAMA TAHUN 2019
p2968
sg9
Nsg10
Nsg11
V894 / S.3 / YPM - D100 / III - 1440
p2969
sg13
Nsg14
Nsg15
Nsg17
Nsg18
g678
sg19
Nsg20
I894
sg21
Nsa(dp2970
g2
Nsg3
Nsg5
Nsg6
Nsg7
VSERTIFIKAT SEMINAR GURU
p2971
sg9
Nsg10
Nsg11
V895 / S.4 / YPM - 7000 / III - 1440
p2972
sg13
Nsg14
Nsg15
Nsg17
Nsg18
Nsg19
Nsg20
I895
sg21
Nsa(dp2973
g2
Nsg3
Nsg5
Nsg6
Nsg7
g891
sg9
Nsg10
Nsg11
V896 / S.7 / YPM - 7000 / III - 1440
p2974
sg13
Nsg14
Nsg15
g1099
(S'\x07\xe2\x0b\x18\x00\x00\x00\x00\x00\x00'
p2975
tp2976
Rp2977
sg17
Nsg18
Nsg19
Nsg20
I896
sg21
Nsa(dp2978
g2
Nsg3
Nsg5
Nsg6
Nsg7
VTANGGAPAN SURAT PERMOHONAN TEMPAT PELATIHAN PEMOTONGAN AYAM BAGI PARA JURU POTONG AYAM SE-KOTA BANDUNG TAHUN 2018
p2979
sg9
Nsg10
Nsg11
V897 / S.16 / YPM - B100 / III - 1440
p2980
sg13
Nsg14
Nsg15
Nsg17
Nsg18
g1284
sg19
Nsg20
I897
sg21
Nsa(dp2981
g2
Nsg3
Nsg5
Nsg6
Nsg7
VSURAT KONTRAK KERJA - EDITOR (YADI SETIADI)
p2982
sg9
Nsg10
Nsg11
V898 / S.9 / YPM - 6000 / III - 1440
p2983
sg13
Nsg14
Nsg15
Nsg17
Nsg18
Nsg19
Nsg20
I898
sg21
Nsa(dp2984
g2
Nsg3
Nsg5
Nsg6
Nsg7
VSURAT TUGAS PESERTA DIKLAT SEMILOKA (ERI MARAWIJAYA)
p2985
sg9
Nsg10
Nsg11
V899 / S.11 / YPM - 1000 / III - 1440
p2986
sg13
Nsg14
Nsg15
Nsg17
Nsg18
Nsg19
Nsg20
I899
sg21
Nsa(dp2987
g2
Nsg3
Nsg5
Nsg6
Nsg7
VTANGGAPAN SURAT PERMOHONAN SURAT KETERANGAN DOMISILI
p2988
sg9
Nsg10
Nsg11
V900 / S.16 / YPM - D100 / III - 1440
p2989
sg13
Nsg14
Nsg15
Nsg17
Nsg18
VPT. SYNA TEKNIKA
p2990
sg19
Nsg20
I900
sg21
Nsa(dp2991
g2
Nsg3
Nsg5
Nsg6
Nsg7
VTANGGAPAN PERMOHONAN KERJA SAMA
p2992
sg9
Nsg10
Nsg11
V901 / S.11 / YPM - 1000 / III - 1440
p2993
sg13
Nsg14
Nsg15
Nsg17
Nsg18
VYAYASAN BAITNET
p2994
sg19
Nsg20
I901
sg21
Nsa(dp2995
g2
Nsg3
Nsg5
Nsg6
Nsg7
VSURAT PERMOHONAN FASILITAS BIMTEK JULEHA
p2996
sg9
Nsg10
Nsg11
V902 / S.11 / YPM - B100 / III - 1440
p2997
sg13
Nsg14
Nsg15
g1099
(S'\x07\xe2\x0b\x1a\x00\x00\x00\x00\x00\x00'
p2998
tp2999
Rp3000
sg17
Nsg18
VKEPALA DINAS KETAHANAN PANGAN DAN PETERNAKAN PROV. JABAR
p3001
sg19
Nsg20
I902
sg21
Nsa(dp3002
g2
Nsg3
Nsg5
Nsg6
Nsg7
VPERJANJIAN HUTANG (YPM - ISKANDAR UMAR)
p3003
sg9
Nsg10
Nsg11
V903 / S.9 / YPM - 2100 / III - 1440
p3004
sg13
Nsg14
Nsg15
Nsg17
Nsg18
Nsg19
Nsg20
I903
sg21
Nsa(dp3005
g2
Nsg3
Nsg5
Nsg6
Nsg7
VIZIN KUNJUNGAN LABORATORIUM
p3006
sg9
Nsg10
Nsg11
V904 / S.6 / YPM - C100 / III - 1440
p3007
sg13
Nsg14
Nsg15
Nsg17
Nsg18
g1013
sg19
Nsg20
I904
sg21
Nsa(dp3008
g2
Nsg3
Nsg5
Nsg6
Nsg7
VSURAT PERNYATAAN TIDAK DALAM SENGKETA ATAU PAILIT
p3009
sg9
Nsg10
Nsg11
V905 / S.4 / YPM - 0000 / III - 1440
p3010
sg13
Nsg14
Nsg15
Nsg17
Nsg18
VNOTARIS
p3011
sg19
Nsg20
I905
sg21
Nsa(dp3012
g2
Nsg3
Nsg5
Nsg6
Nsg7
VSURAT KUASA PENUTUPAN REKENING - BSM (SH/AH - TRIA MEGA)
p3013
sg9
Nsg10
Nsg11
V906 / S.8 / YPM - 7000 / III - 1440
p3014
sg13
Nsg14
Nsg15
g1099
(S'\x07\xe2\x0b\x1d\x00\x00\x00\x00\x00\x00'
p3015
tp3016
Rp3017
sg17
Nsg18
Nsg19
Nsg20
I906
sg21
Nsa(dp3018
g2
Nsg3
Nsg5
Nsg6
Nsg7
g3013
sg9
Nsg10
Nsg11
V907 / S.8 / YPM - 7000 / III - 1440
p3019
sg13
Nsg14
Nsg15
Nsg17
Nsg18
Nsg19
Nsg20
I907
sg21
Nsa(dp3020
g2
Nsg3
Nsg5
Nsg6
Nsg7
g3013
sg9
Nsg10
Nsg11
V908 / S.8 / YPM - 7000 / III - 1440
p3021
sg13
Nsg14
Nsg15
Nsg17
Nsg18
Nsg19
Nsg20
I908
sg21
Nsa(dp3022
g2
Nsg3
Nsg5
Nsg6
Nsg7
g3013
sg9
Nsg10
Nsg11
V909 / S.8 / YPM - 7000 / III - 1440
p3023
sg13
Nsg14
Nsg15
Nsg17
Nsg18
Nsg19
Nsg20
I909
sg21
Nsa(dp3024
g2
Nsg3
Nsg5
Nsg6
Nsg7
g1037
sg9
Nsg10
Nsg11
V910 / S.4/ YPM - 4000 / III - 1440
p3025
sg13
Nsg14
Nsg15
Nsg17
Nsg18
Nsg19
Nsg20
I910
sg21
Nsa(dp3026
g2
Nsg3
Nsg5
Nsg6
Nsg7
VUNDANGAN PESERTA SSC
p3027
sg9
Nsg10
Nsg11
V911 / S.7 / YPM - 5000 / III - 1440
p3028
sg13
Nsg14
Nsg15
Nsg17
Nsg18
Nsg19
Nsg20
I911
sg21
Nsa(dp3029
g2
Nsg3
Nsg5
Nsg6
Nsg7
VSK PENGANGKATAN TIM ADHOC FINANCING DAN PENGELOLAAN AWAL RSSH
p3030
sg9
Nsg10
Nsg11
V912 / S.1 / YPM - 0000 / III - 1440
p3031
sg13
Nsg14
Nsg15
V01 Desember 2018
p3032
sg17
Nsg18
Nsg19
Nsg20
I912
sg21
Nsa(dp3033
g2
Nsg3
Nsg5
Nsg6
Nsg7
VPEMINJAMAN AMBULANCE (SPECTRA)
p3034
sg9
Nsg10
Nsg11
V913 / S.6 / YPM - 5000 / III - 1440
p3035
sg13
Nsg14
Nsg15
Nsg17
Nsg18
g1657
sg19
Nsg20
I913
sg21
Nsa(dp3036
g2
Nsg3
Nsg5
Nsg6
g4
sg7
VPERJANJIAN KERJA SAMA NAZHIR WAKAF (BJBS - YPM)
p3037
sg9
VBADAN WAKAF SALMAN
p3038
sg10
Nsg11
V914 / S.9 / YPM - 1000 / III - 1440
p3039
sg13
Nsg14
Nsg15
V04 Desember 2001
p3040
sg17
Nsg18
Nsg19
g4
sg20
I914
sg21
Nsa(dp3041
g2
Nsg3
Nsg5
Nsg6
g4
sg7
g2366
sg9
VBIDANG MAHASISWA, KADERISASI DAN ALUMNI
p3042
sg10
Nsg11
V915 / S.4 / YPM - 5000 / III - 1440
p3043
sg13
Nsg14
Nsg15
Nsg17
Nsg18
Nsg19
g4
sg20
I915
sg21
Nsa(dp3044
g2
Nsg3
Nsg5
Nsg6
g4
sg7
VSURAT PENAWARAN
p3045
sg9
VMANAJER LEMBAGA PENGEMBANGAN PENDIDIKAN
p3046
sg10
Nsg11
V916 / S.6 / YPM - 7000 / III - 1440
p3047
sg13
Nsg14
Nsg15
Nsg17
Nsg18
Nsg19
g4
sg20
I916
sg21
Nsa(dp3048
g2
Nsg3
Nsg5
Nsg6
g4
sg7
VSERTIFIKAT ESCO
p3049
sg9
g3042
sg10
Nsg11
V917 / S.4 / YPM - 5000 / III - 1440
p3050
sg13
Nsg14
Nsg15
V05 Desember 2018
p3051
sg17
Nsg18
Nsg19
g4
sg20
I917
sg21
Nsa(dp3052
g2
Nsg3
Nsg5
Nsg6
VBUPATI SIAK - RIAU
p3053
sg7
VSURAT KERJA SAMA PRODUKSI FILM IQRO' - MY UNIVERSE
p3054
sg9
VSALMAN FILM
p3055
sg10
Nsg11
V918 / S.2 / YPM - 6300 / III - 1440
p3056
sg13
Nsg14
Nsg15
Nsg17
Nsg18
Nsg19
g4
sg20
I918
sg21
Nsa(dp3057
g2
Nsg3
Nsg5
g2016
sg6
g4
sg7
VSURAT KUASA - HKD KE ICH B - MNC
p3058
sg9
g2016
sg10
Nsg11
V919 / S.8 / YPM - 0000 / III - 1440
p3059
sg13
Nsg14
Nsg15
Nsg17
Nsg18
Nsg19
g4
sg20
I919
sg21
Nsa(dp3060
g2
Nsg3
Nsg5
Nsg6
g4
sg7
VPENGAJUAN SURAT KETERANGAN MAHASISWA
p3061
sg9
g3042
sg10
Nsg11
V920 / S.6 / YPM - 5000 / III - 1440
p3062
sg13
Nsg14
Nsg15
V06 Desember 2018
p3063
sg17
Nsg18
Nsg19
g4
sg20
I920
sg21
Nsa(dp3064
g2
Nsg3
Nsg5
Nsg6
g4
sg7
VSURAT TUGAS PESERTA WORKSHOP REGISTRASI CALON AUDITOR HALAL (RATNA SARI LISTYANINGRUM, S.T.P., M.SI.)
p3065
sg9
VPUSAT HALAL SALMAN ITB
p3066
sg10
Nsg11
V921 / S.11 / YPM - B100 / III - 1440
p3067
sg13
Nsg14
Nsg15
Nsg17
Nsg18
Nsg19
g4
sg20
I921
sg21
Nsa(dp3068
g2
Nsg3
Nsg5
Nsg6
g4
sg7
VSURAT TUGAS PESERTA SINKRONISASI DAN REGISTRASI LPH (SAIPUL ADNAN-DINA SUDJANA/SAIPUL ADNAN-PEBRIANI RIZKI ALI)
p3069
sg9
g3066
sg10
Nsg11
V922 / S.11 / YPM - B100 / III - 1440
p3070
sg13
Nsg14
Nsg15
Nsg17
Nsg18
Nsg19
g4
sg20
I922
sg21
Nsa(dp3071
g2
Nsg3
Nsg5
Nsg6
VDKM BATAN
p3072
sg7
g2746
sg9
g3042
sg10
Nsg11
V923 / S.6 / YPM - C100 / III - 1440
p3073
sg13
Nsg14
Nsg15
Nsg17
Nsg18
Nsg19
g4
sg20
I923
sg21
Nsa(dp3074
g2
Nsg3
Nsg5
VHARI UTOMO
p3075
sg6
VKEPALA KEMENAG RI KABUPATEN BANDUNG
p3076
sg7
VSURAT PERMOHONAN IZIN OPERASIONAL MDTA KHAIRINA YPM SALMAN ITB
p3077
sg9
g3075
sg10
Nsg11
V924 / S.6 / YPM - 4000 / III - 1440
p3078
sg13
Nsg14
Nsg15
Nsg17
Nsg18
Nsg19
g4
sg20
I924
sg21
Nsa(dp3079
g2
Nsg3
Nsg5
Nsg6
g4
sg7
g1678
sg9
VMANAJER BIDANG SUMBERDAYA
p3080
sg10
Nsg11
V925 / S.11 / YPM - D101 / III - 1440
p3081
sg13
Nsg14
Nsg15
V07 Desember 2018
p3082
sg17
Nsg18
Nsg19
g4
sg20
I925
sg21
Nsa(dp3083
g2
Nsg3
Nsg5
Nsg6
g4
sg7
VIZIN KEGIATAN LMD 195
p3084
sg9
g3042
sg10
Nsg11
V926 / S.6 / YPM - 5000 / III - 1440
p3085
sg13
Nsg14
Nsg15
Nsg17
Nsg18
Nsg19
g4
sg20
I926
sg21
Nsa(dp3086
g2
Nsg3
Nsg5
Nsg6
g4
sg7
VPERMOHONAN KHATIB JUMAT 2019
p3087
sg9
VBIDANG DAKWAH
p3088
sg10
Nsg11
V927 / S.6 / YPM - 4000 / III - 1440
p3089
sg13
Nsg14
Nsg15
Nsg17
Nsg18
Nsg19
g4
sg20
I927
sg21
Nsa(dp3090
g2
Nsg3
Nsg5
Nsg6
g4
sg7
VPERJANJIAN KERJA SAMA PENGHIMPUNAN WAKAF UANG (YPM-CIMB NIAGA SYARIAH)
p3091
sg9
g3038
sg10
Nsg11
V928 / S.9 / YPM - C100 / III - 1440
p3092
sg13
Nsg14
Nsg15
Nsg17
Nsg18
Nsg19
g4
sg20
I928
sg21
Nsa(dp3093
g2
Nsg3
Nsg5
Nsg6
g4
sg7
VSK MANAJER HUMAS, SEKRETARIAT & FUNDRAISING (M. KHIRZAN N. NOE'MAN)
p3094
sg9
VKETUA UMUM
p3095
sg10
Nsg11
V929 / S.1 / YPM - 1000 / III - 1440
p3096
sg13
Nsg14
Nsg15
Nsg17
Nsg18
Nsg19
g4
sg20
I929
sg21
Nsa(dp3097
g2
Nsg3
Nsg5
Nsg6
g4
sg7
VSK DIREKTUR BADAN WAKAF SALMAN (M. KHIRZAN N. NOE'MAN)
p3098
sg9
g3095
sg10
Nsg11
V930 / S.1 / YPM - 1000 / III - 1440
p3099
sg13
Nsg14
Nsg15
Nsg17
Nsg18
Nsg19
g4
sg20
I930
sg21
Nsa(dp3100
g2
Nsg3
Nsg5
Nsg6
Nsg7
VTANGGAPAN
p3101
sg9
VKETUA BIDANG SUMBERDAYA
p3102
sg10
Nsg11
V931 / S.16 / YPM - D100 / III - 1440
p3103
sg13
Nsg14
Nsg15
V08 Desember 2018
p3104
sg17
Nsg18
VPT ZAMRUD
p3105
sg19
g4
sg20
I931
sg21
Nsa(dp3106
g2
Nsg3
Nsg5
Nsg6
Nsg7
g3101
sg9
g3102
sg10
Nsg11
V932 / S.16 / YPM - D100 / III - 1440
p3107
sg13
Nsg14
Nsg15
Nsg17
Nsg18
VEDU EDI
p3108
sg19
g4
sg20
I932
sg21
Nsa(dp3109
g2
Nsg3
Nsg5
Nsg6
Nsg7
g3101
sg9
g3102
sg10
Nsg11
V933 / S.16 / YPM - D100 / III - 1440
p3110
sg13
Nsg14
Nsg15
Nsg17
Nsg18
VMANDIRI GRAFIKA
p3111
sg19
g4
sg20
I933
sg21
Nsa(dp3112
g2
Nsg3
Nsg5
Nsg6
Nsg7
g3101
sg9
g3102
sg10
Nsg11
V934 / S.16 / YPM - D100 / III - 1440
p3113
sg13
Nsg14
Nsg15
Nsg17
Nsg18
VBEECOM
p3114
sg19
g4
sg20
I934
sg21
Nsa(dp3115
g2
Nsg3
Nsg5
Nsg6
VPENGURUS INTI
p3116
sg7
VUNDANGAN FAMILY GATHERING ASRAMA SALMAN ITB
p3117
sg9
g3042
sg10
Nsg11
V935 / S.7 / YPM - 5000 / III - 1440
p3118
sg13
Nsg14
Nsg15
Nsg17
Nsg18
Nsg19
g4
sg20
I935
sg21
Nsa(dp3119
g2
Nsg3
Nsg5
Nsg6
VORANG TUA ASRAMA
p3120
sg7
g3117
sg9
g3042
sg10
Nsg11
V936 / S.7 / YPM - 5000 / III - 1440
p3121
sg13
Nsg14
Nsg15
Nsg17
Nsg18
Nsg19
g4
sg20
I936
sg21
Nsa(dp3122
g2
Nsg3
Nsg5
Nsg6
Nsg7
g2173
sg9
Nsg10
Nsg11
V937 / S.6 / YPM - 5000 / IV - 1440
p3123
sg13
Nsg14
Nsg15
V10 Desember 2018
p3124
sg17
Nsg18
Nsg19
Nsg20
I937
sg21
Nsa(dp3125
g2
Nsg3
Nsg5
Nsg6
Nsg7
g2173
sg9
Nsg10
Nsg11
V938 / S.6 / YPM - 7000 / IV - 1440
p3126
sg13
Nsg14
Nsg15
Nsg17
Nsg18
Nsg19
Nsg20
I938
sg21
Nsa(dp3127
g2
Nsg3
Nsg5
Nsg6
Nsg7
VSERTIFIKAT WISUDA TAHFIDZ
p3128
sg9
Nsg10
Nsg11
V939 / S.4 / YPM - 4000 / IV - 1440
p3129
sg13
Nsg14
Nsg15
Nsg17
Nsg18
Nsg19
Nsg20
I939
sg21
Nsa(dp3130
g2
Nsg3
Nsg5
Nsg6
Nsg7
VSERTIFIKAT SPN 34+
p3131
sg9
Nsg10
Nsg11
V940 / S.4 / YPM - 4000 / IV - 1440
p3132
sg13
Nsg14
Nsg15
Nsg17
Nsg18
Nsg19
Nsg20
I940
sg21
Nsa(dp3133
g2
Nsg3
Nsg5
Nsg6
Nsg7
VSURAT PERMOHONAN SURAT KETERANGAN (PEMBUATAN DOMISILI)
p3134
sg9
Nsg10
Nsg11
V941 / S.6 / YPM - 1000 / IV - 1440
p3135
sg13
Nsg14
Nsg15
Nsg17
Nsg18
VKEPALA KELURAHAN LEBAK SILIWANGI
p3136
sg19
Nsg20
I941
sg21
Nsa(dp3137
g2
Nsg3
Nsg5
Nsg6
Nsg7
VSURAT PERNYATAAN (PEMBUATAN DOMISILI)
p3138
sg9
Nsg10
Nsg11
V942 / S.4 / YPM - 1000 / IV - 1440
p3139
sg13
Nsg14
Nsg15
Nsg17
Nsg18
g3136
sg19
Nsg20
I942
sg21
Nsa(dp3140
g2
Nsg3
Nsg5
Nsg6
Nsg7
VSURAT KUASA (PEMBUATAN DOMISILI)
p3141
sg9
Nsg10
Nsg11
V943 / S.8 / YPM - 1000 / IV - 1440
p3142
sg13
Nsg14
Nsg15
Nsg17
Nsg18
g3136
sg19
Nsg20
I943
sg21
Nsa(dp3143
g2
Nsg3
Nsg5
Nsg6
Nsg7
VPERMOHONAN IZIN MENGADAKAN KUNJUNGAN
p3144
sg9
Nsg10
Nsg11
V944 / S.6 / YPM - 5000 / IV - 1440
p3145
sg13
Nsg14
Nsg15
Nsg17
Nsg18
VKEPALA PENGELOLA MESJID INDONESIA TOKYO
p3146
sg19
Nsg20
I944
sg21
Nsa(dp3147
g2
Nsg3
Nsg5
Nsg6
Nsg7
VSERTIFIKAT WORKSHOP GURU
p3148
sg9
Nsg10
Nsg11
V945 / S.4 / YPM - 7000 / IV - 1440
p3149
sg13
Nsg14
Nsg15
V11 Desember 2018
p3150
sg17
Nsg18
Nsg19
Nsg20
I945
sg21
Nsa(dp3151
g2
Nsg3
Nsg5
Nsg6
Nsg7
VSURAT TUGAS NARASUMBER (SOSIALISASI PENGEMBANGAN PENERAPAN SERTA PENGAWASAN STANDARISASI PRODUK WISATA (DESTINASI))
p3152
sg9
Nsg10
Nsg11
V946 / S.11 / YPM - B100 / IV - 1440
p3153
sg13
Nsg14
Nsg15
Nsg17
Nsg18
Nsg19
Nsg20
I946
sg21
Nsa(dp3154
g2
VEMAIL DAN WA
p3155
sg3
g54
sg5
VLUTHFIE MAULA ALFIANTO
p3156
sg6
VPAK HERMAWAN, PAK YEDI, PAK SAMSOE, PAK ASEP ZA, PAK SYARIF
p3157
sg7
VPERMOHONAN PEMBICARA SSC 18
p3158
sg9
g3042
sg10
VPEMBINA DAN PENGURUS
p3159
sg11
V947 / S.6 / YPM - 5000 / IV - 1440
p3160
sg13
Nsg14
VMANAJER BIDANG
p3161
sg15
Nsg17
Nsg18
VYPM SALMAN ITB
p3162
sg19
Nsg20
I947
sg21
VTIDAK
p3163
sa(dp3164
g2
Nsg3
g23
sg5
Nsg6
Nsg7
VSURAT KETERANGAN (UNTUK PEMBUATAN DOMISILI) - TIDAK ADA SERTIFIKAT TANAH
p3165
sg9
g3162
sg10
Nsg11
V948 / S.4 / YPM - 1000 / IV - 1440
p3166
sg13
Nsg14
Nsg15
V13 DESEMBER 2018
p3167
sg17
Nsg18
VKELURAHAN DAN KECAMATAN LEBAK SILIWANGI
p3168
sg19
Nsg20
I948
sg21
VYA
p3169
sa(dp3170
g2
Nsg3
g23
sg5
Nsg6
Nsg7
VSURAT KETERANGAN (UNTUK PEMBUATAN DOMISILI) - TIDAK ADA BUKTI PBB
p3171
sg9
g3162
sg10
Nsg11
V949 / S.4 / YPM - 1000 / IV - 1440
p3172
sg13
Nsg14
Nsg15
g3167
sg17
Nsg18
g3168
sg19
Nsg20
I949
sg21
g3169
sa(dp3173
g2
Nsg3
g23
sg5
Nsg6
Nsg7
g3165
sg9
VAMKI
p3174
sg10
Nsg11
V950 / S.4 / YPM - 1000 / IV - 1440
p3175
sg13
Nsg14
Nsg15
g3167
sg17
Nsg18
g3168
sg19
Nsg20
I950
sg21
g3169
sa(dp3176
g2
Nsg3
g23
sg5
Nsg6
Nsg7
g3171
sg9
g3174
sg10
Nsg11
V951 / S.4 / YPM - 1000 / IV - 1440
p3177
sg13
Nsg14
Nsg15
g3167
sg17
Nsg18
g3168
sg19
Nsg20
I951
sg21
g3169
sa(dp3178
g2
Nsg3
g54
sg5
g3156
sg6
Nsg7
VUNDANGAN PESERTA SSC 18
p3179
sg9
g3042
sg10
Nsg11
V952 / S.7 / YPM - 5000 / IV - 1440
p3180
sg13
Nsg14
VMANAJER
p3181
sg15
V14 DESEMBER 2018
p3182
sg17
Nsg18
VPESERTA SSC 18
p3183
sg19
Nsg20
I952
sg21
g3163
sa(dp3184
g2
Nsg3
Nsg5
Nsg6
Nsg7
Nsg9
g3042
sg10
Nsg11
V953 / S.6 / YPM - 5000 / IV - 1440
p3185
sg13
Nsg14
g3181
sg15
Nsg17
Nsg18
Nsg19
Nsg20
I953
sg21
Nsa(dp3186
g2
Nsg3
Nsg5
g3156
sg6
Nsg7
Nsg9
g3042
sg10
Nsg11
V954 / S.4 / YPM - 5000 / IV - 1440
p3187
sg13
Nsg14
g3181
sg15
Nsg17
Nsg18
VPESERTA TRAINING PUBLIC SPEAKING
p3188
sg19
Nsg20
I954
sg21
Nsa(dp3189
g2
VJL. GANESHA NO. 10 BANDUNG
p3190
sg3
VLUTHFIE DAN MARIO
p3191
sg5
g3156
sg6
g4
sg7
VSURAT KETERANGAN AKTIVIS (UNTUK ASRAMA MENGEMBARA)
p3192
sg9
g3042
sg10
g4
sg11
V955 / S.4 / YPM - 5000 / IV - 1440
p3193
sg13
Nsg14
g3181
sg15
V17 DESEMBER 2018
p3194
sg17
Nsg18
VPRODI D3 METROLOGI DAN INSTRUMENTASI ITB
p3195
sg19
Nsg20
I955
sg21
g3163
sa(dp3196
g2
VJL. CIGADUNG SELATAN III NO. 1-A BANDUNG
p3197
sg3
g23
sg5
g23
sg6
VHERMAWAN K. DIPOJONO
p3198
sg7
VPENGANTAR RKA 2019
p3199
sg9
g3162
sg10
VKETUA PEMBIN
p3200
sg11
V956 / S.10 / YPM - 1000 / IV - 1440
p3201
sg13
Nsg14
VKETUA UMUM PENGURUS
p3202
sg15
g3194
sg17
Nsg18
g3162
sg19
Nsg20
I956
sg21
g3163
sa(dp3203
g2
g4
sg3
VSYARIF HIDAYAT DAN AMY HAMIDAH
p3204
sg5
VMARCHIANA AULYA HAQ
p3205
sg6
g4
sg7
VPENUTUPAN REKENING BNI PTB ITB
p3206
sg9
g1657
sg10
g4
sg11
V957 / S.6 / YPM - 1000 / IV - 1440
p3207
sg13
Nsg14
VSTAF
p3208
sg15
g3194
sg17
Nsg18
g2878
sg19
Nsg20
I957
sg21
g3163
sa(dp3209
g2
g4
sg3
VLUTHFIE 
p3210
sg5
g3156
sg6
g4
sg7
VLETTER OF INVITATION (SPECTRA 3.0)
p3211
sg9
g3042
sg10
g561
sg11
V958 / S.2 / YPM - 5000 / IV - 1440
p3212
sg13
Nsg14
g3181
sg15
g3194
sg17
Nsg18
g4
sg19
Nsg20
I958
sg21
g3163
sa(dp3213
g2
g4
sg3
g54
sg5
g3156
sg6
g4
sg7
VPEMBERITAHUAN DAN PERMOHONAN KEGIATAN (SPECTRA 3.0)
p3214
sg9
g3042
sg10
g4
sg11
V959 / S.2 / YPM - 5000 / IV - 1440
p3215
sg13
Nsg14
g3181
sg15
g3194
sg17
Nsg18
VRT, RW, POLSEK, DLL.
p3216
sg19
Nsg20
I959
sg21
g3163
sa(dp3217
g2
g4
sg3
g54
sg5
g3156
sg6
g4
sg7
VIZIN PESERTA (SPECTRA 3.0)
p3218
sg9
g3042
sg10
g561
sg11
V960 / S.14 / YPM - 5000 / IV - 1440
p3219
sg13
Nsg14
g3181
sg15
g3194
sg17
Nsg18
g4
sg19
Nsg20
I960
sg21
g3163
sa(dp3220
g2
VJL. IR. H. DJUANDA NO. 24 BANDUNG
p3221
sg3
g61
sg5
g61
sg6
VTEGUH PRASETYA
p3222
sg7
VSURAT PENGAJUAN BANTUAN RENOVASI 
p3223
sg9
g3162
sg10
VAREA MANAGER
p3224
sg11
V961 / S.6 / YPM - 2100 / IV - 1440
p3225
sg13
Nsg14
VDIREKTUR EKSEKUTIF
p3226
sg15
g3194
sg17
Nsg18
VPT BANK SYARIAH MANDIRI
p3227
sg19
Nsg20
I961
sg21
g3169
sa(dp3228
g2
VJL. DR. SETIABUDHI NO. 229 BANDUNG
p3229
sg3
g61
sg5
g61
sg6
VDR. HJ. RICHE CYNTHIA JOHAN, M.SI.
p3230
sg7
VTANGGAPAN PENELITIAN A.N FAJAR AL AULIYA FATTAH / 1404104 / PERPUSINFO / S-1 / FAK. ILMU PENDIDIKAN
p3231
sg9
g3162
sg10
VKETUA PRODI PERPUSTAKAAN DAN SAINS INFORMASI
p3232
sg11
V962 / S.16 / YPM - 2100 / IV - 1440
p3233
sg13
Nsg14
g3226
sg15
g3194
sg17
Nsg18
VUNIVERSITAS PENDIDIKAN INDONESIA (UPI)
p3234
sg19
V18 DESEMBER 2018
p3235
sg20
I962
sg21
g3169
sa(dp3236
g2
g4
sg3
g54
sg5
g3156
sg6
g4
sg7
VSK UNTUK MENYETUJUI PENGUNDURAN DIRI ANGGOTA RUMAH SAHABAT MUDA
p3237
sg9
g3042
sg10
VANGGOTA RUMAH SAHABAT MUDA
p3238
sg11
V963 / S.1 / YPM - 5000 / IV - 1440
p3239
sg13
g4
sg14
g3181
sg15
g3235
sg17
g4
sg18
g4
sg19
g4
sg20
I963
sg21
g3163
sa(dp3240
g2
g4
sg3
g54
sg5
g3156
sg6
g4
sg7
VSURAT KETERANGAN TELAH MENGIKUTI SSC DAN LMD
p3241
sg9
g3042
sg10
g561
sg11
V964 / S.4 / YPM - 5000 / IV - 1440
p3242
sg13
Nsg14
g3181
sg15
g3235
sg17
Nsg18
g4
sg19
Nsg20
I964
sg21
Nsa(dp3243
g2
Nsg3
Nsg5
Nsg6
Nsg7
VSURAT IZIN PESERTA (SSC 19)
p3244
sg9
Nsg10
Nsg11
V965 / S.14 / YPM - 5000 / IV - 1440
p3245
sg13
Nsg14
Nsg15
Nsg17
Nsg18
Nsg19
Nsg20
I965
sg21
Nsa(dp3246
g2
Nsg3
Nsg5
Nsg6
Nsg7
VLETTER OF INVITATION (SSC 19)
p3247
sg9
Nsg10
Nsg11
V966 / S.7 / YPM - 5000 / IV - 1440
p3248
sg13
Nsg14
Nsg15
Nsg17
Nsg18
Nsg19
Nsg20
I966
sg21
Nsa(dp3249
g2
g4
sg3
VERI MARAWIJAYA DAN TEDY KUSMANA
p3250
sg5
g61
sg6
VTEDY KUSMANA
p3251
sg7
VSURAT KUASA PERPANJANGAN STNK MOBIL AVANZA NOMOR POLISI D 1823 PD WARNA HITAM
p3252
sg9
g3162
sg10
VDRIVER
p3253
sg11
V967 / S.8 / YPM - 2100 / IV - 1440
p3254
sg13
VTEDY KUSMANA, DRIVER
p3255
sg14
g3226
sg15
V19 DESEMBER 2018
p3256
sg17
Nsg18
g3162
sg19
g3256
sg20
I967
sg21
g3169
sa(dp3257
g2
g4
sg3
g3198
sg5
g3198
sg6
g4
sg7
VUNDANGAN RAPAT PEMBINA (MEMBAHAS RKA 2019)
p3258
sg9
g3162
sg10
VANGGOTA PEMBINA
p3259
sg11
V968 / S.7 / YPM - 0000 / IV - 1440
p3260
sg13
VTAUFIK WD
p3261
sg14
VKETUA PEMBINA
p3262
sg15
g3256
sg17
Nsg18
g3162
sg19
g3256
sg20
I968
sg21
g3169
sa(dp3263
g2
g4
sg3
g1350
sg5
g1350
sg6
g4
sg7
VTAGIHAN PIUTANG
p3264
sg9
g3162
sg10
g4
sg11
V969 / S.2 / YPM - 3000 / IV - 1440
p3265
sg13
Nsg14
VBENDAHARA UMUM PENGURUS
p3266
sg15
V20 DESEMBER 2018
p3267
sg17
Nsg18
g4
sg19
Nsg20
I969
sg21
g3163
sa(dp3268
g2
VKONTER SALMAN
p3269
sg3
g31
sg5
g31
sg6
VYUNUS SULISTYO
p3270
sg7
VTANGGAPAN PERPANJANGAN KONTRAK RUANGAN
p3271
sg9
VBIDANG SUMBERDAYA
p3272
sg10
VOWNER
p3273
sg11
V970 / S.16 / YPM - D100 / IV - 1440
p3274
sg13
Nsg14
VKETUA BIDANG
p3275
sg15
g3267
sg17
Nsg18
g3114
sg19
Nsg20
I970
sg21
g3163
sa(dp3276
g2
g3269
sg3
g31
sg5
g31
sg6
VGUMILAR RAHMAT HIDAYAT
p3277
sg7
g3271
sg9
g3272
sg10
g3273
sg11
V971 / S.16 / YPM - D100 / IV - 1440
p3278
sg13
Nsg14
g3275
sg15
g3267
sg17
Nsg18
VSALMAN DIGITAL & PHOTOCOPY
p3279
sg19
Nsg20
I971
sg21
g3163
sa(dp3280
g2
g3269
sg3
g31
sg5
g31
sg6
VSUPRIANTO
p3281
sg7
g3271
sg9
g3272
sg10
g3273
sg11
V972 / S.16 / YPM - D100 / IV - 1440
p3282
sg13
Nsg14
g3275
sg15
g3267
sg17
Nsg18
VRANSI
p3283
sg19
Nsg20
I972
sg21
g3163
sa(dp3284
g2
g3269
sg3
g31
sg5
g31
sg6
g3281
sg7
g3271
sg9
g3272
sg10
g3273
sg11
V973 / S.16 / YPM - D100 / IV - 1440
p3285
sg13
Nsg14
g3275
sg15
g3267
sg17
Nsg18
g3111
sg19
Nsg20
I973
sg21
g3163
sa(dp3286
g2
VTENANT SALMAN
p3287
sg3
g31
sg5
g31
sg6
VHERU WIBOWO
p3288
sg7
g3271
sg9
g3272
sg10
VDIREKTUR UTAMA
p3289
sg11
V974 / S.16 / YPM - D100 / IV - 1440
p3290
sg13
Nsg14
g3275
sg15
g3267
sg17
Nsg18
g40
sg19
Nsg20
I974
sg21
g3163
sa(dp3291
g2
g3287
sg3
g31
sg5
g31
sg6
VBUDI FAISAL
p3292
sg7
g3271
sg9
g3272
sg10
g3289
sg11
V975 / S.16 / YPM - D100 / IV - 1440
p3293
sg13
Nsg14
g3275
sg15
g3267
sg17
Nsg18
g76
sg19
Nsg20
I975
sg21
g3163
sa(dp3294
g2
g3287
sg3
g31
sg5
g31
sg6
g4
sg7
VTINDAK LANJUT SURAT TANGGAPAN SEWA RUANG
p3295
sg9
g3272
sg10
g4
sg11
V976 / S.2 / YPM - D100 / IV - 1440
p3296
sg13
Nsg14
g3275
sg15
g3267
sg17
Nsg18
VTENANT-TENANT
p3297
sg19
Nsg20
I976
sg21
g3163
sa(dp3298
g2
g4
sg3
g61
sg5
g4
sg6
g4
sg7
VPERMOHONAN KUNJUNGAN (MASJID JOGOKARIYAN)
p3299
sg9
g3088
sg10
g4
sg11
V977 / S.6 / YPM - 4000 / IV - 1440
p3300
sg13
Nsg14
g4
sg15
g3267
sg17
Nsg18
VMASJID JOGOKARIYAN
p3301
sg19
Nsg20
I977
sg21
g3169
sa(dp3302
g2
VJL. GANESHA NO. 7 BANDUNG
p3303
sg3
VLUTHFIE MAULANA ALFIANTO
p3304
sg5
g3304
sg6
g4
sg7
VSURAT TUGAS SURVEY SPECTRA
p3305
sg9
VBIDANG MAHASISWA, KADERISASI & ALUMNI
p3306
sg10
VASISTEN MANAJER BMKA
p3307
sg11
V978 / S.11 / YPM - 5000 / IV - 1440
p3308
sg13
Nsg14
g3181
sg15
V21 DESEMBER 2018
p3309
sg17
Nsg18
g3162
sg19
g3309
sg20
I978
sg21
g3163
sa(dp3310
g2
g4
sg3
VUMAR KHAYAM
p3311
sg5
g3311
sg6
g4
sg7
VSERTIFIKAT SSC 18
p3312
sg9
g3306
sg10
g3183
sg11
V979 / S.4 / YPM - 5000 / IV - 1440
p3313
sg13
Nsg14
g3275
sg15
V22 DESEMBER 2018
p3314
sg17
Nsg18
g4
sg19
V23 DESEMBER 2018
p3315
sg20
I979
sg21
g3163
sa(dp3316
g2
g3303
sg3
VSUWARNO, WAHYU SRIGUTOMO & SUPRIANTO
p3317
sg5
g23
sg6
g3281
sg7
VPERJANJIAN SEWA MENYEWA
p3318
sg9
g3162
sg10
g3273
sg11
V980 / S.9 / YPM - 1000 / IV - 1440
p3319
sg13
g3281
sg14
g3095
sg15
V25 DESEMBER 2018
p3320
sg17
Nsg18
g3111
sg19
V26 DESEMBER 2018
p3321
sg20
I980
sg21
g3163
sa(dp3322
g2
g3303
sg3
g3317
sg5
g23
sg6
g3281
sg7
g3318
sg9
g3162
sg10
g3273
sg11
V981 / S.9 / YPM - 1000 / IV - 1440
p3323
sg13
Nsg14
g3095
sg15
g3320
sg17
Nsg18
g3283
sg19
g3321
sg20
I981
sg21
g3163
sa(dp3324
g2
g3303
sg3
VSUWARNO, WAHYU SRIGUTOMO & HERU WIBOWO
p3325
sg5
g23
sg6
g3288
sg7
g3318
sg9
g3162
sg10
g3273
sg11
V982 / S.9 / YPM - 1000 / IV - 1440
p3326
sg13
Nsg14
g3095
sg15
g3320
sg17
Nsg18
VPT PSUD
p3327
sg19
g3321
sg20
I982
sg21
g3163
sa(dp3328
g2
g3303
sg3
VSUWARNO, WAHYU SRIGUTOMO & BUDI FAISAL
p3329
sg5
g23
sg6
g3292
sg7
g3318
sg9
g3162
sg10
g3273
sg11
V983 / S.9 / YPM - 1000 / IV - 1440
p3330
sg13
Nsg14
g3095
sg15
g3320
sg17
Nsg18
g76
sg19
g3321
sg20
I983
sg21
g3163
sa(dp3331
g2
g3303
sg3
VSUWARNO, WAHYU SRIGUTOMO & YUNUS SULISTYO
p3332
sg5
g23
sg6
g3270
sg7
g3318
sg9
g3162
sg10
g3273
sg11
V984 / S.9 / YPM - 1000 / IV - 1440
p3333
sg13
Nsg14
g3095
sg15
g3320
sg17
Nsg18
g3114
sg19
g3321
sg20
I984
sg21
g3163
sa(dp3334
g2
g3303
sg3
VSUWARNO, WAHYU SRIGUTOMO & DEDY KURNIAWAN NASUTION
p3335
sg5
g23
sg6
g2861
sg7
g3318
sg9
g3162
sg10
g3273
sg11
V985 / S.9 / YPM - 1000 / IV - 1440
p3336
sg13
Nsg14
g3095
sg15
g3320
sg17
Nsg18
g3108
sg19
g3321
sg20
I985
sg21
g3163
sa(dp3337
g2
g3303
sg3
VSUWARNO, WAHYU SRIGUTOMO & GUMILAR RAHMAT HIDAYAT
p3338
sg5
g23
sg6
g3277
sg7
g3318
sg9
g3162
sg10
g3273
sg11
V986 / S.9 / YPM - 1000 / IV - 1440
p3339
sg13
Nsg14
g3095
sg15
g3320
sg17
Nsg18
g3279
sg19
g3321
sg20
I986
sg21
g3163
sa(dp3340
g2
g4
sg3
g3311
sg5
g3311
sg6
g4
sg7
VSERTIFIKAT SPECTRA 3.0
p3341
sg9
g3306
sg10
VPESERTA SPECTRA 3.0
p3342
sg11
V987 / S.4 / YPM - 5000 / IV - 1440
p3343
sg13
Nsg14
g3275
sg15
g3320
sg17
Nsg18
g4
sg19
g3320
sg20
I987
sg21
g3163
sa(dp3344
g2
Nsg3
g61
sg5
Nsg6
Nsg7
VSERTIFIKAT JUNIOR FILMMAKER
p3345
sg9
g3055
sg10
Nsg11
V988 / S.4 / YPM - 6300 / IV - 1440
p3346
sg13
Nsg14
Nsg15
g3321
sg17
Nsg18
Nsg19
Nsg20
I988
sg21
g3169
sa(dp3347
g2
g4
sg3
g66
sg5
g66
sg6
VYEDI PURWATO & JUNDI ABDULLAH
p3348
sg7
VSURAT TUGAS MENGHADIRI SEMINAR NASIONAL (MILAD PUSDAI KE-21)
p3349
sg9
g3162
sg10
VKETUA BIDANG DAN ASISTEN MANAJER
p3350
sg11
V989 / S.11 / YPM - 1000 / IV - 1440
p3351
sg13
Nsg14
VKETUA HARIAN
p3352
sg15
V26 DESEMBER 20189
p3353
sg17
Nsg18
g3088
sg19
g3321
sg20
I989
sg21
g3169
sa(dp3354
g2
g4
sg3
g505
sg5
g505
sg6
g4
sg7
VSURAT KETERANGAN HASIL PEMERIKSAAN
p3355
sg9
g3066
sg10
g4
sg11
V990 / S.4 / YPM - B100 / IV - 1440
p3356
sg13
Nsg14
g3352
sg15
g3321
sg17
Nsg18
g4
sg19
g3321
sg20
I990
sg21
g3163
sa(dp3357
g2
g4
sg3
g3075
sg5
g3075
sg6
g4
sg7
VPERJANJIAN KERJASAMA ANTARA PT CITRA NIAGA TEKNOLOGI DENGAN YPM SALMAN ITB (BADAN WAKAF SALMAN ITB) TENTANG APLIKASI WAKAF ZAINS
p3358
sg9
g3038
sg10
g4
sg11
V991 / S.9 / YPM - C100 / IV - 1440
p3359
sg13
Nsg14
g3352
sg15
g3321
sg17
Nsg18
VPT CITRA NIAGA TEKNOLOGI
p3360
sg19
g3321
sg20
I991
sg21
g3163
sa(dp3361
g2
g4
sg3
VSAMSUL BACHRI
p3362
sg5
g3362
sg6
g4
sg7
VSERTIFIKAT SMART LEARNING CAMP
p3363
sg9
VLEMBAGA PENGEMBANGAN PENDIDIKAN
p3364
sg10
VPESERTA SMART LC
p3365
sg11
V992 / S.4 / YPM - 7000 / IV - 1440
p3366
sg13
Nsg14
g3275
sg15
V28 DESEMBER 2018
p3367
sg17
Nsg18
g4
sg19
V30 DESEMBER 2018
p3368
sg20
I992
sg21
g3163
sa(dp3369
g2
g4
sg3
g23
sg5
g23
sg6
g862
sg7
VTAZIAH IBU HJ. ENIH SUHANAH BINTI IDI (IBUNDA PROF. DR. SLAMET IBRAHIM, DEA, APT.)
p3370
sg9
g3162
sg10
g4
sg11
V993 / S.12 / YPM - 1000 / IV - 1440
p3371
sg13
Nsg14
g3095
sg15
g3367
sg17
Nsg18
g4
sg19
V29 DESEMBER 2018
p3372
sg20
I993
sg21
g3169
sa(dp3373
g2
VKOMPLEKS KEMENTERIAN PENDIDIKAN DAN KEBUDAYAAN, JALAN JENDERAL SUDIRMAN, JAKARTA PUSAT 10270
p3374
sg3
g3362
sg5
g3362
sg6
g4
sg7
VPERMOHONAN BLOCKGRANT
p3375
sg9
g3364
sg10
g4
sg11
V994 / S.6 / YPM - 7000 / IV - 1440
p3376
sg13
Nsg14
g3275
sg15
V7 DESEMBER 2018
p3377
sg17
Nsg18
VKEMENDIKBUD
p3378
sg19
Nsg20
I994
sg21
Nsa.